(lp0
((lp1
(lp2
F0.6825
aF0.9992857142857143
aI873
aa(lp3
F0.7139285714285715
aF0.9978571428571429
aI894
aa(lp4
F0.7182142857142857
aF0.9992857142857143
aI882
aa(lp5
F0.735
aF1.0
aI895
aa(lp6
F0.7425
aF0.9992857142857143
aI884
aa(lp7
F0.7760714285714285
aF0.9978571428571429
aI883
aa(lp8
F0.7914285714285715
aF1.0
aI875
aa(lp9
F0.7778571428571428
aF0.9985714285714286
aI903
aa(lp10
F0.7989285714285714
aF0.9992857142857143
aI883
aa(lp11
F0.7792857142857142
aF1.0
aI878
aa(lp12
F0.8257142857142858
aF0.9985714285714286
aI897
aa(lp13
F0.8157142857142858
aF0.9985714285714286
aI894
aa(lp14
F0.8235714285714286
aF1.0
aI893
aa(lp15
F0.8553571428571429
aF0.9992857142857143
aI868
aa(lp16
F0.8414285714285714
aF0.9985714285714286
aI877
aa(lp17
F0.8660714285714286
aF0.9992857142857143
aI868
aa(lp18
F0.8799999999999999
aF0.9985714285714286
aI882
aa(lp19
F0.8928571428571428
aF0.9985714285714286
aI867
aa(lp20
F0.9125
aF0.9992857142857143
aI892
aa(lp21
F0.9257142857142857
aF0.9985714285714286
aI861
aa(lp22
F0.9189285714285714
aF0.9964285714285714
aI867
aa(lp23
F0.9153571428571429
aF0.9992857142857143
aI880
aa(lp24
F0.9239285714285714
aF0.9978571428571429
aI875
aa(lp25
F0.9139285714285714
aF0.9964285714285714
aI868
aa(lp26
F0.9482142857142857
aF0.9978571428571429
aI869
aa(lp27
F0.95
aF0.9971428571428571
aI865
aa(lp28
F0.9617857142857144
aF0.9992857142857143
aI874
aa(lp29
F0.9628571428571429
aF1.0
aI887
aa(lp30
F0.9682142857142857
aF0.9992857142857143
aI872
aa(lp31
F0.9614285714285714
aF1.0
aI871
aa(lp32
F0.9753571428571428
aF0.9992857142857143
aI869
aa(lp33
F0.9839285714285715
aF0.9992857142857143
aI861
aa(lp34
F0.9728571428571429
aF1.0
aI872
aa(lp35
F0.9810714285714286
aF0.9964285714285714
aI855
aa(lp36
F0.9803571428571428
aF0.9992857142857143
aI866
aa(lp37
F0.9757142857142858
aF1.0
aI871
aa(lp38
F0.9810714285714286
aF0.9992857142857143
aI881
aa(lp39
F0.9742857142857143
aF1.0
aI878
aa(lp40
F0.9885714285714287
aF0.9985714285714286
aI858
aa(lp41
F0.985
aF1.0
aI866
aa(lp42
F0.9821428571428571
aF1.0
aI877
aa(lp43
F0.9892857142857143
aF1.0
aI860
aa(lp44
F0.9825
aF0.9992857142857143
aI868
aa(lp45
F0.9864285714285714
aF1.0
aI868
aa(lp46
F0.9839285714285715
aF0.9992857142857143
aI851
aa(lp47
F0.9896428571428572
aF0.9992857142857143
aI858
aa(lp48
F0.9867857142857143
aF0.9992857142857143
aI872
aa(lp49
F0.9928571428571429
aF1.0
aI883
aa(lp50
F0.9857142857142858
aF1.0
aI854
aa(lp51
F0.9921428571428571
aF1.0
aI863
aa(lp52
(lp53
F0.5866666666666667
aF0.9833333333333333
aI873
aa(lp54
F0.5900000000000001
aF0.9866666666666667
aI894
aa(lp55
F0.6258333333333334
aF0.9916666666666667
aI882
aa(lp56
F0.5916666666666667
aF1.0
aI895
aa(lp57
F0.6233333333333333
aF1.0
aI884
aa(lp58
F0.6116666666666667
aF1.0
aI883
aa(lp59
F0.6533333333333333
aF1.0
aI875
aa(lp60
F0.6516666666666666
aF0.9966666666666667
aI903
aa(lp61
F0.6733333333333333
aF1.0
aI883
aa(lp62
F0.6758333333333333
aF0.9983333333333333
aI878
aa(lp63
F0.665
aF0.9966666666666667
aI897
aa(lp64
F0.7116666666666667
aF1.0
aI894
aa(lp65
F0.7258333333333333
aF0.995
aI893
aa(lp66
F0.7533333333333332
aF0.9933333333333333
aI868
aa(lp67
F0.7733333333333334
aF0.9966666666666667
aI877
aa(lp68
F0.8108333333333333
aF0.9983333333333333
aI868
aa(lp69
F0.815
aF0.9966666666666667
aI882
aa(lp70
F0.8200000000000001
aF0.9933333333333333
aI867
aa(lp71
F0.8333333333333333
aF0.9933333333333333
aI892
aa(lp72
F0.8641666666666667
aF0.9916666666666667
aI861
aa(lp73
F0.8383333333333334
aF0.9866666666666667
aI867
aa(lp74
F0.835
aF0.9966666666666667
aI880
aa(lp75
F0.8733333333333333
aF0.9966666666666667
aI875
aa(lp76
F0.8591666666666666
aF0.9983333333333333
aI868
aa(lp77
F0.9083333333333333
aF1.0
aI869
aa(lp78
F0.9249999999999999
aF0.99
aI865
aa(lp79
F0.9316666666666666
aF0.9966666666666667
aI874
aa(lp80
F0.9316666666666666
aF1.0
aI887
aa(lp81
F0.935
aF0.9966666666666667
aI872
aa(lp82
F0.9341666666666667
aF0.9983333333333333
aI871
aa(lp83
F0.9558333333333333
aF0.9983333333333333
aI869
aa(lp84
F0.965
aF1.0
aI861
aa(lp85
F0.9691666666666666
aF0.9983333333333333
aI872
aa(lp86
F0.9650000000000001
aF0.9966666666666667
aI855
aa(lp87
F0.9675
aF0.9983333333333333
aI866
aa(lp88
F0.9516666666666667
aF1.0
aI871
aa(lp89
F0.9625
aF0.9983333333333333
aI881
aa(lp90
F0.9508333333333333
aF0.9983333333333333
aI878
aa(lp91
F0.9675
aF0.9983333333333333
aI858
aa(lp92
F0.9633333333333334
aF0.9933333333333333
aI866
aa(lp93
F0.9625
aF0.9983333333333333
aI877
aa(lp94
F0.9733333333333334
aF1.0
aI860
aa(lp95
F0.9716666666666667
aF0.9966666666666667
aI868
aa(lp96
F0.9733333333333334
aF1.0
aI868
aa(lp97
F0.9675
aF0.9983333333333333
aI851
aa(lp98
F0.9666666666666667
aF1.0
aI858
aa(lp99
F0.9716666666666667
aF1.0
aI872
aa(lp100
F0.9833333333333333
aF1.0
aI883
aa(lp101
F0.9933333333333333
aF1.0
aI854
aa(lp102
F0.9866666666666667
aF1.0
aI863
aatp103
a((lp104
(lp105
F0.7271428571428571
aF0.9971428571428571
aI861
aa(lp106
F0.7135714285714286
aF0.99
aI889
aa(lp107
F0.7360714285714285
aF0.9992857142857143
aI879
aa(lp108
F0.7739285714285714
aF0.9992857142857143
aI879
aa(lp109
F0.785
aF0.9971428571428571
aI871
aa(lp110
F0.8010714285714287
aF0.9978571428571429
aI877
aa(lp111
F0.8107142857142857
aF1.0
aI874
aa(lp112
F0.8292857142857144
aF0.9985714285714286
aI876
aa(lp113
F0.8421428571428572
aF0.9971428571428571
aI863
aa(lp114
F0.8592857142857142
aF0.9957142857142857
aI883
aa(lp115
F0.8414285714285714
aF0.9942857142857143
aI877
aa(lp116
F0.8857142857142857
aF0.9957142857142857
aI880
aa(lp117
F0.8946428571428571
aF0.995
aI870
aa(lp118
F0.8885714285714286
aF0.9971428571428571
aI879
aa(lp119
F0.8782142857142857
aF0.9964285714285714
aI876
aa(lp120
F0.907142857142857
aF0.9942857142857143
aI872
aa(lp121
F0.9071428571428573
aF0.9985714285714286
aI862
aa(lp122
F0.8846428571428571
aF0.9964285714285714
aI864
aa(lp123
F0.9160714285714286
aF0.995
aI871
aa(lp124
F0.9192857142857143
aF1.0
aI872
aa(lp125
F0.915
aF0.9957142857142857
aI877
aa(lp126
F0.925
aF0.9957142857142857
aI866
aa(lp127
F0.9153571428571429
aF0.9992857142857143
aI868
aa(lp128
F0.9275
aF0.995
aI867
aa(lp129
F0.9450000000000001
aF0.9971428571428571
aI861
aa(lp130
F0.9471428571428571
aF0.9971428571428571
aI871
aa(lp131
F0.9532142857142858
aF0.9978571428571429
aI867
aa(lp132
F0.9635714285714285
aF0.9971428571428571
aI869
aa(lp133
F0.9671428571428572
aF1.0
aI876
aa(lp134
F0.9639285714285714
aF0.9992857142857143
aI872
aa(lp135
F0.9714285714285713
aF0.9985714285714286
aI872
aa(lp136
F0.9678571428571429
aF1.0
aI865
aa(lp137
F0.9689285714285716
aF0.995
aI856
aa(lp138
F0.9617857142857144
aF0.9992857142857143
aI871
aa(lp139
F0.9682142857142857
aF0.9992857142857143
aI882
aa(lp140
F0.9678571428571427
aF0.9985714285714286
aI871
aa(lp141
F0.9839285714285715
aF0.9978571428571429
aI875
aa(lp142
F0.9867857142857143
aF0.9992857142857143
aI850
aa(lp143
F0.99
aF1.0
aI867
aa(lp144
F0.9814285714285714
aF1.0
aI876
aa(lp145
F0.9782142857142858
aF0.9992857142857143
aI860
aa(lp146
F0.9907142857142858
aF1.0
aI859
aa(lp147
F0.9921428571428571
aF1.0
aI880
aa(lp148
F0.9785714285714285
aF1.0
aI872
aa(lp149
F0.9878571428571428
aF0.9985714285714286
aI871
aa(lp150
F0.985
aF1.0
aI876
aa(lp151
F0.9939285714285715
aF0.9992857142857143
aI860
aa(lp152
F0.9946428571428572
aF0.9992857142857143
aI858
aa(lp153
F0.9910714285714286
aF0.9992857142857143
aI836
aa(lp154
F0.9889285714285715
aF0.9992857142857143
aI863
aa(lp155
(lp156
F0.5741666666666666
aF0.9916666666666667
aI861
aa(lp157
F0.6108333333333333
aF0.9783333333333333
aI889
aa(lp158
F0.6416666666666667
aF1.0
aI879
aa(lp159
F0.685
aF0.9966666666666667
aI879
aa(lp160
F0.685
aF0.9966666666666667
aI871
aa(lp161
F0.7050000000000001
aF0.9966666666666667
aI877
aa(lp162
F0.7175
aF0.995
aI874
aa(lp163
F0.7425
aF0.9883333333333333
aI876
aa(lp164
F0.7258333333333333
aF0.995
aI863
aa(lp165
F0.75
aF0.9933333333333333
aI883
aa(lp166
F0.7541666666666667
aF0.9883333333333333
aI877
aa(lp167
F0.7908333333333333
aF0.985
aI880
aa(lp168
F0.7758333333333333
aF0.9883333333333333
aI870
aa(lp169
F0.8066666666666666
aF0.99
aI879
aa(lp170
F0.8174999999999999
aF0.9983333333333333
aI876
aa(lp171
F0.8125
aF0.9916666666666667
aI872
aa(lp172
F0.8391666666666667
aF0.9916666666666667
aI862
aa(lp173
F0.8333333333333333
aF0.9966666666666667
aI864
aa(lp174
F0.8433333333333333
aF0.99
aI871
aa(lp175
F0.8574999999999999
aF0.995
aI872
aa(lp176
F0.8691666666666666
aF0.9916666666666667
aI877
aa(lp177
F0.885
aF0.9933333333333333
aI866
aa(lp178
F0.8674999999999999
aF0.995
aI868
aa(lp179
F0.87
aF0.98
aI867
aa(lp180
F0.8699999999999999
aF0.9933333333333333
aI861
aa(lp181
F0.9016666666666666
aF0.99
aI871
aa(lp182
F0.9125
aF0.9983333333333333
aI867
aa(lp183
F0.9083333333333333
aF0.99
aI869
aa(lp184
F0.9333333333333333
aF0.9966666666666667
aI876
aa(lp185
F0.9416666666666667
aF1.0
aI872
aa(lp186
F0.9366666666666668
aF0.9966666666666667
aI872
aa(lp187
F0.9291666666666667
aF0.995
aI865
aa(lp188
F0.9475
aF0.9983333333333333
aI856
aa(lp189
F0.9433333333333334
aF0.9966666666666667
aI871
aa(lp190
F0.9383333333333335
aF0.9966666666666667
aI882
aa(lp191
F0.9524999999999999
aF0.9983333333333333
aI871
aa(lp192
F0.9716666666666667
aF0.9933333333333333
aI875
aa(lp193
F0.9616666666666667
aF1.0
aI850
aa(lp194
F0.9608333333333333
aF0.9983333333333333
aI867
aa(lp195
F0.9483333333333334
aF1.0
aI876
aa(lp196
F0.9583333333333335
aF0.9966666666666667
aI860
aa(lp197
F0.9691666666666667
aF0.995
aI859
aa(lp198
F0.9774999999999999
aF0.9983333333333333
aI880
aa(lp199
F0.9616666666666667
aF0.9966666666666667
aI872
aa(lp200
F0.97
aF0.9966666666666667
aI871
aa(lp201
F0.96
aF1.0
aI876
aa(lp202
F0.9824999999999999
aF0.9983333333333333
aI860
aa(lp203
F0.9783333333333334
aF1.0
aI858
aa(lp204
F0.9716666666666667
aF1.0
aI836
aa(lp205
F0.9866666666666666
aF0.9966666666666667
aI863
aatp206
a((lp207
(lp208
F0.7114285714285713
aF0.9957142857142857
aI867
aa(lp209
F0.7175
aF0.995
aI901
aa(lp210
F0.6992857142857143
aF1.0
aI885
aa(lp211
F0.7292857142857143
aF0.9942857142857143
aI880
aa(lp212
F0.7525
aF0.9978571428571429
aI890
aa(lp213
F0.780357142857143
aF0.9978571428571429
aI884
aa(lp214
F0.7928571428571428
aF1.0
aI880
aa(lp215
F0.8128571428571428
aF1.0
aI874
aa(lp216
F0.8289285714285715
aF0.9992857142857143
aI883
aa(lp217
F0.8110714285714287
aF0.9978571428571429
aI894
aa(lp218
F0.8307142857142857
aF1.0
aI898
aa(lp219
F0.8246428571428571
aF0.9992857142857143
aI886
aa(lp220
F0.8510714285714287
aF0.9978571428571429
aI878
aa(lp221
F0.8903571428571428
aF0.9935714285714285
aI879
aa(lp222
F0.8799999999999999
aF0.9914285714285714
aI860
aa(lp223
F0.9125000000000001
aF0.9978571428571429
aI855
aa(lp224
F0.9303571428571429
aF0.9978571428571429
aI862
aa(lp225
F0.9107142857142857
aF1.0
aI871
aa(lp226
F0.9314285714285715
aF0.9985714285714286
aI871
aa(lp227
F0.9457142857142857
aF0.9985714285714286
aI873
aa(lp228
F0.9428571428571428
aF0.9985714285714286
aI880
aa(lp229
F0.95
aF0.9985714285714286
aI879
aa(lp230
F0.9489285714285713
aF0.9978571428571429
aI874
aa(lp231
F0.9657142857142857
aF0.9942857142857143
aI879
aa(lp232
F0.9571428571428572
aF1.0
aI878
aa(lp233
F0.9521428571428572
aF1.0
aI882
aa(lp234
F0.9710714285714286
aF0.9978571428571429
aI878
aa(lp235
F0.9728571428571429
aF0.9985714285714286
aI860
aa(lp236
F0.9775
aF0.9992857142857143
aI861
aa(lp237
F0.9682142857142857
aF0.9978571428571429
aI877
aa(lp238
F0.9696428571428571
aF0.9992857142857143
aI879
aa(lp239
F0.9735714285714285
aF1.0
aI881
aa(lp240
F0.9842857142857143
aF0.9971428571428571
aI879
aa(lp241
F0.9846428571428572
aF0.9978571428571429
aI851
aa(lp242
F0.9667857142857144
aF0.9992857142857143
aI858
aa(lp243
F0.9835714285714285
aF1.0
aI863
aa(lp244
F0.9664285714285714
aF0.9985714285714286
aI863
aa(lp245
F0.975
aF1.0
aI867
aa(lp246
F0.98
aF1.0
aI875
aa(lp247
F0.9725
aF0.9992857142857143
aI867
aa(lp248
F0.9807142857142858
aF1.0
aI851
aa(lp249
F0.9821428571428572
aF0.9985714285714286
aI882
aa(lp250
F0.9792857142857143
aF1.0
aI884
aa(lp251
F0.9814285714285714
aF1.0
aI858
aa(lp252
F0.98
aF1.0
aI874
aa(lp253
F0.9757142857142858
aF1.0
aI869
aa(lp254
F0.9835714285714285
aF1.0
aI864
aa(lp255
F0.9732142857142857
aF0.9992857142857143
aI857
aa(lp256
F0.9807142857142856
aF0.9971428571428571
aI886
aa(lp257
F0.9764285714285714
aF1.0
aI878
aa(lp258
(lp259
F0.5658333333333334
aF0.9883333333333333
aI867
aa(lp260
F0.585
aF0.9966666666666667
aI901
aa(lp261
F0.5866666666666667
aF1.0
aI885
aa(lp262
F0.615
aF0.9933333333333333
aI880
aa(lp263
F0.6308333333333334
aF0.995
aI890
aa(lp264
F0.6825
aF0.9916666666666667
aI884
aa(lp265
F0.665
aF0.9966666666666667
aI880
aa(lp266
F0.7016666666666667
aF1.0
aI874
aa(lp267
F0.6983333333333334
aF1.0
aI883
aa(lp268
F0.7308333333333333
aF0.9983333333333333
aI894
aa(lp269
F0.7508333333333332
aF0.995
aI898
aa(lp270
F0.7458333333333333
aF0.9983333333333333
aI886
aa(lp271
F0.7649999999999999
aF0.9866666666666667
aI878
aa(lp272
F0.8166666666666667
aF0.9933333333333333
aI879
aa(lp273
F0.8333333333333333
aF0.9933333333333333
aI860
aa(lp274
F0.845
aF0.99
aI855
aa(lp275
F0.8791666666666667
aF0.9916666666666667
aI862
aa(lp276
F0.8616666666666666
aF0.9933333333333333
aI871
aa(lp277
F0.8791666666666667
aF0.9916666666666667
aI871
aa(lp278
F0.8925000000000001
aF0.995
aI873
aa(lp279
F0.91
aF1.0
aI880
aa(lp280
F0.9099999999999999
aF0.9966666666666667
aI879
aa(lp281
F0.9008333333333334
aF0.9916666666666667
aI874
aa(lp282
F0.9275
aF0.9916666666666667
aI879
aa(lp283
F0.9308333333333334
aF0.995
aI878
aa(lp284
F0.9191666666666667
aF0.9983333333333333
aI882
aa(lp285
F0.9316666666666666
aF0.9966666666666667
aI878
aa(lp286
F0.9441666666666666
aF0.995
aI860
aa(lp287
F0.9391666666666667
aF0.9916666666666667
aI861
aa(lp288
F0.9408333333333334
aF0.995
aI877
aa(lp289
F0.9341666666666667
aF0.9983333333333333
aI879
aa(lp290
F0.9525000000000001
aF0.995
aI881
aa(lp291
F0.9658333333333333
aF0.9983333333333333
aI879
aa(lp292
F0.95
aF1.0
aI851
aa(lp293
F0.9225
aF0.9983333333333333
aI858
aa(lp294
F0.9583333333333334
aF1.0
aI863
aa(lp295
F0.9316666666666666
aF0.9966666666666667
aI863
aa(lp296
F0.9483333333333334
aF1.0
aI867
aa(lp297
F0.9308333333333334
aF0.9983333333333333
aI875
aa(lp298
F0.9358333333333333
aF0.9983333333333333
aI867
aa(lp299
F0.9491666666666667
aF0.995
aI851
aa(lp300
F0.9375
aF0.9983333333333333
aI882
aa(lp301
F0.9475
aF0.995
aI884
aa(lp302
F0.95
aF1.0
aI858
aa(lp303
F0.9416666666666667
aF1.0
aI874
aa(lp304
F0.9524999999999999
aF0.9983333333333333
aI869
aa(lp305
F0.9566666666666667
aF1.0
aI864
aa(lp306
F0.9408333333333334
aF0.995
aI857
aa(lp307
F0.9558333333333333
aF0.9983333333333333
aI886
aa(lp308
F0.9625
aF0.9983333333333333
aI878
aatp309
a((lp310
(lp311
F0.7110714285714286
aF0.9921428571428571
aI869
aa(lp312
F0.697857142857143
aF0.9942857142857143
aI876
aa(lp313
F0.74
aF0.9971428571428571
aI875
aa(lp314
F0.770357142857143
aF0.9921428571428571
aI876
aa(lp315
F0.7782142857142857
aF0.995
aI881
aa(lp316
F0.7867857142857143
aF0.9992857142857143
aI891
aa(lp317
F0.7807142857142857
aF0.9985714285714286
aI879
aa(lp318
F0.7964285714285715
aF0.9942857142857143
aI879
aa(lp319
F0.7907142857142857
aF0.9971428571428571
aI887
aa(lp320
F0.8049999999999999
aF0.9985714285714286
aI887
aa(lp321
F0.8385714285714285
aF0.9964285714285714
aI873
aa(lp322
F0.8575
aF0.9964285714285714
aI878
aa(lp323
F0.8500000000000001
aF0.9985714285714286
aI875
aa(lp324
F0.8846428571428571
aF0.9978571428571429
aI866
aa(lp325
F0.8992857142857142
aF0.9985714285714286
aI851
aa(lp326
F0.8996428571428572
aF0.9964285714285714
aI865
aa(lp327
F0.9117857142857143
aF0.9992857142857143
aI888
aa(lp328
F0.9278571428571428
aF0.9971428571428571
aI873
aa(lp329
F0.9228571428571429
aF0.9971428571428571
aI864
aa(lp330
F0.9267857142857143
aF0.9978571428571429
aI882
aa(lp331
F0.9482142857142858
aF0.9992857142857143
aI855
aa(lp332
F0.9707142857142858
aF0.9971428571428571
aI866
aa(lp333
F0.9717857142857143
aF0.9978571428571429
aI861
aa(lp334
F0.9760714285714286
aF0.9992857142857143
aI871
aa(lp335
F0.9671428571428571
aF0.9985714285714286
aI871
aa(lp336
F0.9675
aF0.9978571428571429
aI882
aa(lp337
F0.9671428571428571
aF0.9985714285714286
aI858
aa(lp338
F0.9703571428571429
aF0.9992857142857143
aI863
aa(lp339
F0.9821428571428571
aF0.9971428571428571
aI889
aa(lp340
F0.9675
aF0.9964285714285714
aI878
aa(lp341
F0.9771428571428572
aF0.9971428571428571
aI865
aa(lp342
F0.9864285714285714
aF0.9985714285714286
aI863
aa(lp343
F0.9742857142857143
aF1.0
aI867
aa(lp344
F0.9878571428571429
aF1.0
aI849
aa(lp345
F0.985
aF1.0
aI865
aa(lp346
F0.99
aF1.0
aI852
aa(lp347
F0.9871428571428571
aF1.0
aI865
aa(lp348
F0.9857142857142858
aF0.9985714285714286
aI842
aa(lp349
F0.9928571428571429
aF1.0
aI841
aa(lp350
F0.9778571428571428
aF0.9985714285714286
aI859
aa(lp351
F0.9914285714285715
aF0.9985714285714286
aI851
aa(lp352
F0.9914285714285714
aF1.0
aI849
aa(lp353
F0.995
aF1.0
aI871
aa(lp354
F0.9932142857142857
aF0.9992857142857143
aI854
aa(lp355
F0.9928571428571429
aF1.0
aI870
aa(lp356
F0.9985714285714286
aF1.0
aI852
aa(lp357
F0.9975
aF0.9992857142857143
aI864
aa(lp358
F0.9971428571428571
aF1.0
aI859
aa(lp359
F0.9935714285714285
aF1.0
aI865
aa(lp360
F0.9928571428571429
aF1.0
aI864
aa(lp361
(lp362
F0.5625
aF0.9716666666666667
aI869
aa(lp363
F0.5900000000000001
aF0.9766666666666667
aI876
aa(lp364
F0.6100000000000001
aF0.9933333333333333
aI875
aa(lp365
F0.6275
aF0.9883333333333333
aI876
aa(lp366
F0.6008333333333333
aF0.9883333333333333
aI881
aa(lp367
F0.6458333333333333
aF0.9883333333333333
aI891
aa(lp368
F0.635
aF0.9966666666666667
aI879
aa(lp369
F0.6525
aF0.9783333333333333
aI879
aa(lp370
F0.6858333333333333
aF0.995
aI887
aa(lp371
F0.705
aF1.0
aI887
aa(lp372
F0.7533333333333332
aF0.9933333333333333
aI873
aa(lp373
F0.7850000000000001
aF0.9966666666666667
aI878
aa(lp374
F0.7825
aF0.995
aI875
aa(lp375
F0.8125
aF0.995
aI866
aa(lp376
F0.8233333333333335
aF0.9866666666666667
aI851
aa(lp377
F0.8491666666666666
aF0.9883333333333333
aI865
aa(lp378
F0.8691666666666666
aF0.995
aI888
aa(lp379
F0.875
aF0.9966666666666667
aI873
aa(lp380
F0.8833333333333333
aF1.0
aI864
aa(lp381
F0.9066666666666667
aF0.9966666666666667
aI882
aa(lp382
F0.9016666666666666
aF0.9966666666666667
aI855
aa(lp383
F0.9299999999999999
aF0.9933333333333333
aI866
aa(lp384
F0.95
aF0.9933333333333333
aI861
aa(lp385
F0.9408333333333333
aF0.9983333333333333
aI871
aa(lp386
F0.9408333333333333
aF0.9983333333333333
aI871
aa(lp387
F0.9258333333333333
aF0.985
aI882
aa(lp388
F0.9466666666666668
aF0.9933333333333333
aI858
aa(lp389
F0.9333333333333333
aF0.9966666666666667
aI863
aa(lp390
F0.9533333333333334
aF0.9966666666666667
aI889
aa(lp391
F0.9241666666666667
aF0.9916666666666667
aI878
aa(lp392
F0.9391666666666667
aF0.995
aI865
aa(lp393
F0.9741666666666666
aF0.9983333333333333
aI863
aa(lp394
F0.9633333333333334
aF1.0
aI867
aa(lp395
F0.965
aF1.0
aI849
aa(lp396
F0.97
aF1.0
aI865
aa(lp397
F0.9758333333333333
aF0.9983333333333333
aI852
aa(lp398
F0.9583333333333334
aF1.0
aI865
aa(lp399
F0.9741666666666666
aF0.9983333333333333
aI842
aa(lp400
F0.9758333333333333
aF0.9983333333333333
aI841
aa(lp401
F0.9641666666666667
aF0.9983333333333333
aI859
aa(lp402
F0.975
aF1.0
aI851
aa(lp403
F0.9758333333333333
aF0.9983333333333333
aI849
aa(lp404
F0.9841666666666666
aF0.995
aI871
aa(lp405
F0.9733333333333334
aF0.9966666666666667
aI854
aa(lp406
F0.98
aF1.0
aI870
aa(lp407
F0.9916666666666667
aF1.0
aI852
aa(lp408
F0.9883333333333333
aF1.0
aI864
aa(lp409
F0.9933333333333333
aF1.0
aI859
aa(lp410
F0.9883333333333333
aF1.0
aI865
aa(lp411
F0.9883333333333333
aF1.0
aI864
aatp412
a((lp413
(lp414
F0.6989285714285715
aF0.9964285714285714
aI888
aa(lp415
F0.7339285714285715
aF0.9821428571428571
aI879
aa(lp416
F0.7424999999999999
aF0.9935714285714285
aI883
aa(lp417
F0.75
aF0.9942857142857143
aI876
aa(lp418
F0.7382142857142857
aF0.9992857142857143
aI891
aa(lp419
F0.765357142857143
aF0.9992857142857143
aI878
aa(lp420
F0.7742857142857142
aF0.9985714285714286
aI889
aa(lp421
F0.7860714285714285
aF0.9978571428571429
aI887
aa(lp422
F0.7710714285714286
aF0.9978571428571429
aI878
aa(lp423
F0.7875
aF0.9992857142857143
aI894
aa(lp424
F0.7785714285714286
aF1.0
aI886
aa(lp425
F0.8007142857142857
aF1.0
aI885
aa(lp426
F0.7932142857142856
aF0.9992857142857143
aI878
aa(lp427
F0.8185714285714286
aF1.0
aI866
aa(lp428
F0.8207142857142857
aF0.9942857142857143
aI865
aa(lp429
F0.8360714285714286
aF0.9978571428571429
aI881
aa(lp430
F0.8446428571428573
aF0.9978571428571429
aI880
aa(lp431
F0.8803571428571428
aF0.9978571428571429
aI884
aa(lp432
F0.8425
aF0.9992857142857143
aI878
aa(lp433
F0.8910714285714285
aF0.995
aI862
aa(lp434
F0.8939285714285715
aF0.9992857142857143
aI870
aa(lp435
F0.8896428571428572
aF0.9978571428571429
aI873
aa(lp436
F0.9225
aF0.9992857142857143
aI883
aa(lp437
F0.9367857142857143
aF0.9978571428571429
aI868
aa(lp438
F0.9367857142857143
aF0.9964285714285714
aI868
aa(lp439
F0.9514285714285714
aF0.9971428571428571
aI856
aa(lp440
F0.9514285714285714
aF1.0
aI864
aa(lp441
F0.9403571428571428
aF0.9935714285714285
aI854
aa(lp442
F0.9378571428571427
aF0.9957142857142857
aI897
aa(lp443
F0.95
aF0.9985714285714286
aI875
aa(lp444
F0.9564285714285714
aF0.9971428571428571
aI887
aa(lp445
F0.9567857142857144
aF0.9921428571428571
aI879
aa(lp446
F0.9646428571428571
aF0.9964285714285714
aI885
aa(lp447
F0.9657142857142857
aF0.9985714285714286
aI864
aa(lp448
F0.9642857142857142
aF0.9985714285714286
aI871
aa(lp449
F0.9589285714285714
aF0.9978571428571429
aI872
aa(lp450
F0.9660714285714286
aF0.9992857142857143
aI852
aa(lp451
F0.9707142857142858
aF1.0
aI868
aa(lp452
F0.9639285714285715
aF0.9978571428571429
aI867
aa(lp453
F0.9710714285714287
aF0.9992857142857143
aI865
aa(lp454
F0.9728571428571429
aF1.0
aI840
aa(lp455
F0.9825
aF0.9992857142857143
aI863
aa(lp456
F0.9842857142857142
aF0.9985714285714286
aI853
aa(lp457
F0.99
aF1.0
aI848
aa(lp458
F0.9964285714285714
aF0.9985714285714286
aI860
aa(lp459
F0.9975
aF0.9992857142857143
aI852
aa(lp460
F0.9942857142857143
aF1.0
aI845
aa(lp461
F0.9978571428571429
aF1.0
aI868
aa(lp462
F0.9889285714285715
aF0.9992857142857143
aI860
aa(lp463
F0.9914285714285714
aF1.0
aI868
aa(lp464
(lp465
F0.6016666666666667
aF0.99
aI888
aa(lp466
F0.615
aF0.9766666666666667
aI879
aa(lp467
F0.585
aF0.9866666666666667
aI883
aa(lp468
F0.6058333333333333
aF0.9916666666666667
aI876
aa(lp469
F0.575
aF0.9933333333333333
aI891
aa(lp470
F0.6525
aF0.9983333333333333
aI878
aa(lp471
F0.6125
aF0.9983333333333333
aI889
aa(lp472
F0.6483333333333334
aF0.9933333333333333
aI887
aa(lp473
F0.6599999999999999
aF0.9966666666666667
aI878
aa(lp474
F0.6883333333333332
aF0.9966666666666667
aI894
aa(lp475
F0.6891666666666667
aF0.995
aI886
aa(lp476
F0.7050000000000001
aF0.9966666666666667
aI885
aa(lp477
F0.7308333333333333
aF0.9983333333333333
aI878
aa(lp478
F0.7358333333333333
aF0.9983333333333333
aI866
aa(lp479
F0.6908333333333334
aF0.9883333333333333
aI865
aa(lp480
F0.755
aF1.0
aI881
aa(lp481
F0.7566666666666667
aF1.0
aI880
aa(lp482
F0.7741666666666667
aF0.9983333333333333
aI884
aa(lp483
F0.7850000000000001
aF0.9966666666666667
aI878
aa(lp484
F0.7866666666666666
aF0.9966666666666667
aI862
aa(lp485
F0.8200000000000001
aF0.9933333333333333
aI870
aa(lp486
F0.8083333333333333
aF0.99
aI873
aa(lp487
F0.8483333333333334
aF0.9933333333333333
aI883
aa(lp488
F0.8641666666666666
aF0.9983333333333333
aI868
aa(lp489
F0.8541666666666667
aF0.9883333333333333
aI868
aa(lp490
F0.895
aF0.9966666666666667
aI856
aa(lp491
F0.8983333333333332
aF0.9933333333333333
aI864
aa(lp492
F0.8741666666666666
aF0.9883333333333333
aI854
aa(lp493
F0.8725
aF0.9883333333333333
aI897
aa(lp494
F0.8783333333333333
aF0.99
aI875
aa(lp495
F0.9075
aF0.9916666666666667
aI887
aa(lp496
F0.9099999999999999
aF0.9833333333333333
aI879
aa(lp497
F0.9225
aF0.9983333333333333
aI885
aa(lp498
F0.9016666666666666
aF0.9966666666666667
aI864
aa(lp499
F0.9216666666666666
aF0.9933333333333333
aI871
aa(lp500
F0.9025000000000001
aF0.995
aI872
aa(lp501
F0.9466666666666667
aF0.99
aI852
aa(lp502
F0.9283333333333332
aF0.9933333333333333
aI868
aa(lp503
F0.91
aF0.99
aI867
aa(lp504
F0.9316666666666666
aF0.9966666666666667
aI865
aa(lp505
F0.9391666666666667
aF0.9983333333333333
aI840
aa(lp506
F0.9558333333333333
aF0.9983333333333333
aI863
aa(lp507
F0.9683333333333333
aF0.9933333333333333
aI853
aa(lp508
F0.9791666666666666
aF0.9983333333333333
aI848
aa(lp509
F0.9824999999999999
aF0.9983333333333333
aI860
aa(lp510
F0.9883333333333333
aF0.9966666666666667
aI852
aa(lp511
F0.985
aF1.0
aI845
aa(lp512
F0.9983333333333333
aF1.0
aI868
aa(lp513
F0.9925
aF0.9983333333333333
aI860
aa(lp514
F0.9733333333333334
aF1.0
aI868
aatp515
a((lp516
(lp517
F0.7367857142857143
aF0.9892857142857143
aI884
aa(lp518
F0.7207142857142856
aF0.9885714285714285
aI876
aa(lp519
F0.7514285714285716
aF0.9985714285714286
aI873
aa(lp520
F0.7657142857142858
aF0.9985714285714286
aI876
aa(lp521
F0.7882142857142858
aF0.9992857142857143
aI879
aa(lp522
F0.7735714285714286
aF1.0
aI895
aa(lp523
F0.8042857142857143
aF1.0
aI889
aa(lp524
F0.825
aF0.9985714285714286
aI897
aa(lp525
F0.8542857142857143
aF0.9985714285714286
aI870
aa(lp526
F0.87
aF1.0
aI878
aa(lp527
F0.8832142857142857
aF0.9935714285714285
aI881
aa(lp528
F0.8853571428571428
aF0.9964285714285714
aI858
aa(lp529
F0.9296428571428572
aF0.9978571428571429
aI879
aa(lp530
F0.9178571428571428
aF0.9971428571428571
aI865
aa(lp531
F0.915357142857143
aF0.9978571428571429
aI866
aa(lp532
F0.9046428571428571
aF0.9957142857142857
aI881
aa(lp533
F0.9264285714285714
aF0.9971428571428571
aI870
aa(lp534
F0.9260714285714284
aF0.995
aI871
aa(lp535
F0.935
aF0.9985714285714286
aI865
aa(lp536
F0.9328571428571428
aF0.9971428571428571
aI864
aa(lp537
F0.9414285714285715
aF0.9985714285714286
aI844
aa(lp538
F0.9507142857142857
aF1.0
aI851
aa(lp539
F0.9560714285714286
aF0.9992857142857143
aI880
aa(lp540
F0.9553571428571428
aF0.9978571428571429
aI857
aa(lp541
F0.9578571428571427
aF0.9985714285714286
aI869
aa(lp542
F0.9496428571428572
aF0.995
aI858
aa(lp543
F0.9735714285714285
aF0.9971428571428571
aI885
aa(lp544
F0.9539285714285715
aF0.9978571428571429
aI879
aa(lp545
F0.9589285714285715
aF0.9992857142857143
aI858
aa(lp546
F0.9717857142857143
aF0.9992857142857143
aI875
aa(lp547
F0.9775
aF0.9992857142857143
aI879
aa(lp548
F0.9842857142857143
aF1.0
aI860
aa(lp549
F0.9892857142857143
aF1.0
aI860
aa(lp550
F0.9778571428571429
aF1.0
aI888
aa(lp551
F0.9821428571428572
aF0.9985714285714286
aI852
aa(lp552
F0.9821428571428572
aF0.9985714285714286
aI860
aa(lp553
F0.9867857142857143
aF0.9992857142857143
aI865
aa(lp554
F0.9892857142857143
aF1.0
aI846
aa(lp555
F0.9871428571428571
aF1.0
aI854
aa(lp556
F0.9878571428571429
aF1.0
aI852
aa(lp557
F0.9857142857142858
aF1.0
aI869
aa(lp558
F0.9871428571428571
aF1.0
aI874
aa(lp559
F0.9896428571428572
aF0.9992857142857143
aI851
aa(lp560
F0.9842857142857143
aF1.0
aI857
aa(lp561
F0.9835714285714285
aF1.0
aI882
aa(lp562
F0.9932142857142857
aF0.9992857142857143
aI868
aa(lp563
F0.9928571428571429
aF1.0
aI852
aa(lp564
F0.9957142857142857
aF1.0
aI852
aa(lp565
F0.9928571428571429
aF0.9985714285714286
aI841
aa(lp566
F0.9935714285714285
aF0.9985714285714286
aI846
aa(lp567
(lp568
F0.5974999999999999
aF0.985
aI884
aa(lp569
F0.6041666666666667
aF0.985
aI876
aa(lp570
F0.625
aF0.99
aI873
aa(lp571
F0.6391666666666667
aF0.9916666666666667
aI876
aa(lp572
F0.6416666666666666
aF0.9966666666666667
aI879
aa(lp573
F0.6783333333333332
aF0.9966666666666667
aI895
aa(lp574
F0.6983333333333333
aF0.9966666666666667
aI889
aa(lp575
F0.7233333333333334
aF0.9966666666666667
aI897
aa(lp576
F0.785
aF1.0
aI870
aa(lp577
F0.7933333333333333
aF1.0
aI878
aa(lp578
F0.8041666666666667
aF0.995
aI881
aa(lp579
F0.8174999999999999
aF0.995
aI858
aa(lp580
F0.8425
aF0.995
aI879
aa(lp581
F0.815
aF0.9866666666666667
aI865
aa(lp582
F0.8616666666666666
aF0.9966666666666667
aI866
aa(lp583
F0.8566666666666667
aF0.99
aI881
aa(lp584
F0.8808333333333334
aF0.995
aI870
aa(lp585
F0.8766666666666667
aF0.9933333333333333
aI871
aa(lp586
F0.8875
aF0.995
aI865
aa(lp587
F0.8891666666666667
aF0.995
aI864
aa(lp588
F0.9191666666666667
aF0.9883333333333333
aI844
aa(lp589
F0.9225
aF0.9983333333333333
aI851
aa(lp590
F0.9141666666666667
aF0.9983333333333333
aI880
aa(lp591
F0.8999999999999999
aF0.9966666666666667
aI857
aa(lp592
F0.925
aF0.9933333333333333
aI869
aa(lp593
F0.9191666666666667
aF0.9916666666666667
aI858
aa(lp594
F0.9299999999999999
aF0.9933333333333333
aI885
aa(lp595
F0.9366666666666668
aF0.9966666666666667
aI879
aa(lp596
F0.9258333333333333
aF0.9983333333333333
aI858
aa(lp597
F0.9558333333333333
aF0.995
aI875
aa(lp598
F0.96
aF0.9966666666666667
aI879
aa(lp599
F0.9633333333333334
aF1.0
aI860
aa(lp600
F0.9683333333333334
aF1.0
aI860
aa(lp601
F0.9708333333333333
aF0.9983333333333333
aI888
aa(lp602
F0.9708333333333333
aF0.9983333333333333
aI852
aa(lp603
F0.9833333333333334
aF0.9966666666666667
aI860
aa(lp604
F0.9791666666666666
aF0.9983333333333333
aI865
aa(lp605
F0.9883333333333333
aF1.0
aI846
aa(lp606
F0.9791666666666666
aF0.9983333333333333
aI854
aa(lp607
F0.98
aF1.0
aI852
aa(lp608
F0.9683333333333334
aF1.0
aI869
aa(lp609
F0.9566666666666668
aF0.9966666666666667
aI874
aa(lp610
F0.9883333333333333
aF1.0
aI851
aa(lp611
F0.9733333333333334
aF1.0
aI857
aa(lp612
F0.98
aF1.0
aI882
aa(lp613
F0.9916666666666667
aF1.0
aI868
aa(lp614
F0.9816666666666667
aF1.0
aI852
aa(lp615
F0.9858333333333333
aF0.9983333333333333
aI852
aa(lp616
F0.9866666666666666
aF0.9966666666666667
aI841
aa(lp617
F0.9833333333333333
aF1.0
aI846
aatp618
a((lp619
(lp620
F0.7125000000000001
aF0.9878571428571429
aI877
aa(lp621
F0.7132142857142857
aF0.9764285714285714
aI885
aa(lp622
F0.7585714285714286
aF0.9828571428571429
aI903
aa(lp623
F0.7450000000000001
aF0.9985714285714286
aI883
aa(lp624
F0.7525
aF0.9921428571428571
aI879
aa(lp625
F0.7628571428571429
aF0.9971428571428571
aI873
aa(lp626
F0.7635714285714286
aF1.0
aI876
aa(lp627
F0.7596428571428572
aF0.9992857142857143
aI875
aa(lp628
F0.7607142857142857
aF0.9971428571428571
aI894
aa(lp629
F0.7935714285714286
aF1.0
aI900
aa(lp630
F0.7921428571428571
aF1.0
aI892
aa(lp631
F0.83
aF1.0
aI892
aa(lp632
F0.8235714285714286
aF0.9985714285714286
aI886
aa(lp633
F0.8317857142857142
aF0.9992857142857143
aI859
aa(lp634
F0.8553571428571429
aF0.9978571428571429
aI864
aa(lp635
F0.8321428571428572
aF1.0
aI876
aa(lp636
F0.8664285714285713
aF0.9942857142857143
aI873
aa(lp637
F0.8889285714285714
aF0.9992857142857143
aI854
aa(lp638
F0.8889285714285715
aF0.9978571428571429
aI867
aa(lp639
F0.9139285714285714
aF0.995
aI867
aa(lp640
F0.9203571428571429
aF0.9921428571428571
aI871
aa(lp641
F0.9385714285714286
aF1.0
aI872
aa(lp642
F0.92
aF0.9971428571428571
aI851
aa(lp643
F0.9457142857142857
aF0.9971428571428571
aI867
aa(lp644
F0.9417857142857142
aF0.9978571428571429
aI870
aa(lp645
F0.9603571428571428
aF0.9992857142857143
aI869
aa(lp646
F0.9707142857142858
aF1.0
aI856
aa(lp647
F0.9785714285714286
aF0.9985714285714286
aI858
aa(lp648
F0.9892857142857143
aF1.0
aI844
aa(lp649
F0.9782142857142858
aF0.9992857142857143
aI851
aa(lp650
F0.99
aF1.0
aI857
aa(lp651
F0.9778571428571428
aF0.9985714285714286
aI873
aa(lp652
F0.9764285714285714
aF0.9971428571428571
aI864
aa(lp653
F0.9753571428571428
aF0.9992857142857143
aI841
aa(lp654
F0.9932142857142857
aF0.9992857142857143
aI866
aa(lp655
F0.9932142857142857
aF0.9992857142857143
aI871
aa(lp656
F0.9946428571428572
aF0.9992857142857143
aI877
aa(lp657
F0.9882142857142857
aF0.9992857142857143
aI868
aa(lp658
F0.9875
aF0.9992857142857143
aI856
aa(lp659
F0.9885714285714285
aF1.0
aI866
aa(lp660
F0.9892857142857143
aF1.0
aI877
aa(lp661
F0.9935714285714285
aF1.0
aI868
aa(lp662
F0.9892857142857143
aF0.9985714285714286
aI840
aa(lp663
F0.9885714285714285
aF1.0
aI855
aa(lp664
F0.9878571428571429
aF1.0
aI842
aa(lp665
F0.985
aF1.0
aI867
aa(lp666
F0.9828571428571429
aF1.0
aI852
aa(lp667
F0.9864285714285714
aF0.9971428571428571
aI866
aa(lp668
F0.9896428571428572
aF0.9992857142857143
aI852
aa(lp669
F0.9942857142857142
aF0.9985714285714286
aI858
aa(lp670
(lp671
F0.5933333333333333
aF0.9766666666666667
aI877
aa(lp672
F0.545
aF0.9433333333333334
aI885
aa(lp673
F0.5908333333333333
aF0.9783333333333333
aI903
aa(lp674
F0.5908333333333333
aF0.9916666666666667
aI883
aa(lp675
F0.6408333333333333
aF0.9816666666666667
aI879
aa(lp676
F0.5983333333333334
aF0.9933333333333333
aI873
aa(lp677
F0.6174999999999999
aF0.995
aI876
aa(lp678
F0.6183333333333334
aF0.9933333333333333
aI875
aa(lp679
F0.6491666666666667
aF0.9983333333333333
aI894
aa(lp680
F0.695
aF1.0
aI900
aa(lp681
F0.6841666666666667
aF0.9983333333333333
aI892
aa(lp682
F0.73
aF0.9966666666666667
aI892
aa(lp683
F0.7416666666666667
aF0.9933333333333333
aI886
aa(lp684
F0.7508333333333332
aF0.995
aI859
aa(lp685
F0.7083333333333333
aF0.9933333333333333
aI864
aa(lp686
F0.7333333333333334
aF0.9966666666666667
aI876
aa(lp687
F0.7608333333333334
aF0.9816666666666667
aI873
aa(lp688
F0.7983333333333333
aF0.9966666666666667
aI854
aa(lp689
F0.7925
aF0.9916666666666667
aI867
aa(lp690
F0.8325
aF0.9783333333333333
aI867
aa(lp691
F0.84
aF0.97
aI871
aa(lp692
F0.8475
aF0.9883333333333333
aI872
aa(lp693
F0.8516666666666667
aF1.0
aI851
aa(lp694
F0.8908333333333334
aF0.9916666666666667
aI867
aa(lp695
F0.8791666666666667
aF0.9916666666666667
aI870
aa(lp696
F0.8891666666666667
aF0.9983333333333333
aI869
aa(lp697
F0.9433333333333334
aF1.0
aI856
aa(lp698
F0.9583333333333335
aF0.9966666666666667
aI858
aa(lp699
F0.9683333333333334
aF1.0
aI844
aa(lp700
F0.9458333333333333
aF0.9983333333333333
aI851
aa(lp701
F0.9558333333333333
aF0.9983333333333333
aI857
aa(lp702
F0.9666666666666667
aF1.0
aI873
aa(lp703
F0.9541666666666666
aF0.995
aI864
aa(lp704
F0.9533333333333334
aF0.9966666666666667
aI841
aa(lp705
F0.9766666666666668
aF0.9966666666666667
aI866
aa(lp706
F0.9666666666666667
aF1.0
aI871
aa(lp707
F0.9858333333333333
aF0.9983333333333333
aI877
aa(lp708
F0.9666666666666667
aF1.0
aI868
aa(lp709
F0.9666666666666667
aF1.0
aI856
aa(lp710
F0.9741666666666666
aF0.9983333333333333
aI866
aa(lp711
F0.9641666666666667
aF0.9983333333333333
aI877
aa(lp712
F0.9633333333333334
aF1.0
aI868
aa(lp713
F0.9583333333333334
aF1.0
aI840
aa(lp714
F0.9733333333333334
aF1.0
aI855
aa(lp715
F0.9774999999999999
aF0.9983333333333333
aI842
aa(lp716
F0.9758333333333333
aF0.9983333333333333
aI867
aa(lp717
F0.9766666666666667
aF1.0
aI852
aa(lp718
F0.98
aF0.9966666666666667
aI866
aa(lp719
F0.9816666666666667
aF1.0
aI852
aa(lp720
F0.9891666666666666
aF0.9983333333333333
aI858
aatp721
a((lp722
(lp723
F0.7214285714285714
aF0.9771428571428571
aI876
aa(lp724
F0.7535714285714286
aF0.97
aI880
aa(lp725
F0.7489285714285715
aF0.9964285714285714
aI889
aa(lp726
F0.7692857142857144
aF0.9942857142857143
aI890
aa(lp727
F0.7532142857142856
aF0.9878571428571429
aI873
aa(lp728
F0.7446428571428572
aF0.9964285714285714
aI880
aa(lp729
F0.7457142857142858
aF0.9985714285714286
aI871
aa(lp730
F0.7614285714285713
aF0.9985714285714286
aI892
aa(lp731
F0.7550000000000001
aF0.9985714285714286
aI890
aa(lp732
F0.7817857142857143
aF0.9978571428571429
aI870
aa(lp733
F0.7710714285714285
aF0.9992857142857143
aI902
aa(lp734
F0.7885714285714285
aF0.9985714285714286
aI889
aa(lp735
F0.7810714285714286
aF0.9992857142857143
aI885
aa(lp736
F0.8071428571428572
aF1.0
aI876
aa(lp737
F0.8289285714285715
aF0.9964285714285714
aI884
aa(lp738
F0.83
aF1.0
aI892
aa(lp739
F0.8546428571428571
aF0.9992857142857143
aI904
aa(lp740
F0.8664285714285715
aF0.9957142857142857
aI870
aa(lp741
F0.8778571428571428
aF0.9971428571428571
aI876
aa(lp742
F0.9114285714285715
aF0.9985714285714286
aI872
aa(lp743
F0.9100000000000001
aF0.9985714285714286
aI895
aa(lp744
F0.9110714285714285
aF0.9992857142857143
aI865
aa(lp745
F0.9146428571428572
aF0.9964285714285714
aI874
aa(lp746
F0.9299999999999999
aF0.9985714285714286
aI873
aa(lp747
F0.9185714285714286
aF0.9971428571428571
aI872
aa(lp748
F0.9253571428571429
aF0.9964285714285714
aI856
aa(lp749
F0.9275
aF0.9921428571428571
aI844
aa(lp750
F0.9260714285714284
aF0.995
aI863
aa(lp751
F0.9292857142857143
aF0.9971428571428571
aI886
aa(lp752
F0.9403571428571428
aF0.9964285714285714
aI868
aa(lp753
F0.95
aF0.9985714285714286
aI870
aa(lp754
F0.9328571428571429
aF0.9928571428571429
aI871
aa(lp755
F0.9564285714285714
aF1.0
aI878
aa(lp756
F0.9753571428571428
aF0.9992857142857143
aI884
aa(lp757
F0.9639285714285714
aF0.9992857142857143
aI877
aa(lp758
F0.9707142857142858
aF1.0
aI870
aa(lp759
F0.9707142857142858
aF0.9971428571428571
aI848
aa(lp760
F0.9792857142857143
aF1.0
aI845
aa(lp761
F0.9824999999999999
aF0.9978571428571429
aI872
aa(lp762
F0.9735714285714285
aF1.0
aI866
aa(lp763
F0.9771428571428571
aF0.9985714285714286
aI863
aa(lp764
F0.9839285714285715
aF0.9978571428571429
aI865
aa(lp765
F0.9882142857142857
aF0.9992857142857143
aI870
aa(lp766
F0.9935714285714285
aF0.9985714285714286
aI859
aa(lp767
F0.9907142857142858
aF1.0
aI880
aa(lp768
F0.9935714285714285
aF0.9985714285714286
aI870
aa(lp769
F0.9928571428571429
aF1.0
aI870
aa(lp770
F0.9935714285714285
aF1.0
aI879
aa(lp771
F0.9928571428571429
aF1.0
aI872
aa(lp772
F0.9907142857142858
aF1.0
aI862
aa(lp773
(lp774
F0.61
aF0.97
aI876
aa(lp775
F0.6291666666666667
aF0.9416666666666667
aI880
aa(lp776
F0.6616666666666666
aF0.9933333333333333
aI889
aa(lp777
F0.6641666666666668
aF0.995
aI890
aa(lp778
F0.6508333333333334
aF0.975
aI873
aa(lp779
F0.6174999999999999
aF0.995
aI880
aa(lp780
F0.6300000000000001
aF0.9966666666666667
aI871
aa(lp781
F0.6408333333333334
aF0.995
aI892
aa(lp782
F0.6699999999999999
aF0.9966666666666667
aI890
aa(lp783
F0.6441666666666667
aF0.9983333333333333
aI870
aa(lp784
F0.62
aF1.0
aI902
aa(lp785
F0.6808333333333334
aF0.9983333333333333
aI889
aa(lp786
F0.6616666666666666
aF0.9966666666666667
aI885
aa(lp787
F0.68
aF1.0
aI876
aa(lp788
F0.7449999999999999
aF0.9966666666666667
aI884
aa(lp789
F0.7441666666666666
aF0.9983333333333333
aI892
aa(lp790
F0.7583333333333333
aF0.9966666666666667
aI904
aa(lp791
F0.7908333333333333
aF0.9983333333333333
aI870
aa(lp792
F0.8158333333333332
aF0.995
aI876
aa(lp793
F0.845
aF0.9966666666666667
aI872
aa(lp794
F0.8433333333333333
aF0.9966666666666667
aI895
aa(lp795
F0.8566666666666667
aF1.0
aI865
aa(lp796
F0.8524999999999999
aF0.9916666666666667
aI874
aa(lp797
F0.8633333333333333
aF0.9966666666666667
aI873
aa(lp798
F0.8583333333333334
aF0.9966666666666667
aI872
aa(lp799
F0.8708333333333332
aF0.9883333333333333
aI856
aa(lp800
F0.8925000000000001
aF0.985
aI844
aa(lp801
F0.8741666666666666
aF0.9883333333333333
aI863
aa(lp802
F0.8866666666666667
aF0.99
aI886
aa(lp803
F0.9116666666666667
aF0.99
aI868
aa(lp804
F0.9158333333333333
aF0.9916666666666667
aI870
aa(lp805
F0.895
aF0.9866666666666667
aI871
aa(lp806
F0.9266666666666667
aF0.9966666666666667
aI878
aa(lp807
F0.9525000000000001
aF0.995
aI884
aa(lp808
F0.9450000000000001
aF0.9966666666666667
aI877
aa(lp809
F0.9341666666666667
aF0.9983333333333333
aI870
aa(lp810
F0.95
aF1.0
aI848
aa(lp811
F0.9475
aF0.9983333333333333
aI845
aa(lp812
F0.9633333333333334
aF1.0
aI872
aa(lp813
F0.9566666666666667
aF1.0
aI866
aa(lp814
F0.9566666666666667
aF1.0
aI863
aa(lp815
F0.9508333333333333
aF0.9983333333333333
aI865
aa(lp816
F0.9650000000000001
aF0.9966666666666667
aI870
aa(lp817
F0.9641666666666667
aF0.9983333333333333
aI859
aa(lp818
F0.9833333333333333
aF1.0
aI880
aa(lp819
F0.975
aF1.0
aI870
aa(lp820
F0.9766666666666667
aF1.0
aI870
aa(lp821
F0.98
aF1.0
aI879
aa(lp822
F0.9783333333333334
aF1.0
aI872
aa(lp823
F0.9816666666666667
aF1.0
aI862
aatp824
a((lp825
(lp826
F0.6914285714285714
aF0.9857142857142858
aI872
aa(lp827
F0.7217857142857143
aF0.995
aI865
aa(lp828
F0.7342857142857142
aF0.9971428571428571
aI876
aa(lp829
F0.7410714285714286
aF0.9964285714285714
aI880
aa(lp830
F0.7653571428571428
aF0.9978571428571429
aI885
aa(lp831
F0.7664285714285715
aF1.0
aI882
aa(lp832
F0.7778571428571428
aF1.0
aI890
aa(lp833
F0.81
aF1.0
aI880
aa(lp834
F0.8214285714285714
aF0.9985714285714286
aI881
aa(lp835
F0.8492857142857144
aF0.9942857142857143
aI872
aa(lp836
F0.8289285714285715
aF0.9921428571428571
aI869
aa(lp837
F0.830357142857143
aF0.9978571428571429
aI852
aa(lp838
F0.8378571428571429
aF0.9957142857142857
aI860
aa(lp839
F0.8517857142857143
aF0.9964285714285714
aI872
aa(lp840
F0.8721428571428571
aF0.9942857142857143
aI858
aa(lp841
F0.8725
aF0.9921428571428571
aI853
aa(lp842
F0.8571428571428571
aF0.9971428571428571
aI870
aa(lp843
F0.8721428571428571
aF0.9942857142857143
aI871
aa(lp844
F0.8739285714285714
aF0.9978571428571429
aI866
aa(lp845
F0.9092857142857143
aF0.9957142857142857
aI879
aa(lp846
F0.9199999999999999
aF0.9985714285714286
aI871
aa(lp847
F0.9267857142857143
aF0.995
aI859
aa(lp848
F0.95
aF0.9971428571428571
aI868
aa(lp849
F0.9335714285714285
aF0.9985714285714286
aI860
aa(lp850
F0.9403571428571429
aF0.9992857142857143
aI872
aa(lp851
F0.9571428571428571
aF0.9971428571428571
aI867
aa(lp852
F0.9653571428571428
aF0.9964285714285714
aI884
aa(lp853
F0.9578571428571429
aF1.0
aI866
aa(lp854
F0.9546428571428571
aF0.9978571428571429
aI868
aa(lp855
F0.975
aF1.0
aI878
aa(lp856
F0.9814285714285714
aF0.9971428571428571
aI846
aa(lp857
F0.9721428571428572
aF1.0
aI868
aa(lp858
F0.9764285714285714
aF0.9985714285714286
aI883
aa(lp859
F0.9889285714285715
aF0.9992857142857143
aI864
aa(lp860
F0.9807142857142858
aF1.0
aI864
aa(lp861
F0.9792857142857142
aF0.9971428571428571
aI871
aa(lp862
F0.9778571428571429
aF1.0
aI858
aa(lp863
F0.9782142857142858
aF0.9992857142857143
aI845
aa(lp864
F0.9928571428571429
aF1.0
aI863
aa(lp865
F0.9792857142857143
aF1.0
aI863
aa(lp866
F0.9853571428571429
aF0.9992857142857143
aI843
aa(lp867
F0.9817857142857144
aF0.9992857142857143
aI858
aa(lp868
F0.9814285714285714
aF1.0
aI851
aa(lp869
F0.9903571428571428
aF0.9992857142857143
aI863
aa(lp870
F0.9864285714285714
aF0.9985714285714286
aI880
aa(lp871
F0.9871428571428571
aF1.0
aI856
aa(lp872
F0.9864285714285714
aF1.0
aI853
aa(lp873
F0.9935714285714285
aF1.0
aI850
aa(lp874
F0.99
aF1.0
aI835
aa(lp875
F0.9957142857142857
aF1.0
aI848
aa(lp876
(lp877
F0.5341666666666667
aF0.9683333333333334
aI872
aa(lp878
F0.5975
aF0.9883333333333333
aI865
aa(lp879
F0.5991666666666666
aF0.995
aI876
aa(lp880
F0.6091666666666666
aF0.995
aI880
aa(lp881
F0.6366666666666667
aF0.9966666666666667
aI885
aa(lp882
F0.6591666666666667
aF0.995
aI882
aa(lp883
F0.6575
aF0.995
aI890
aa(lp884
F0.7025
aF0.9983333333333333
aI880
aa(lp885
F0.715
aF1.0
aI881
aa(lp886
F0.7308333333333333
aF0.9883333333333333
aI872
aa(lp887
F0.7358333333333333
aF0.985
aI869
aa(lp888
F0.7383333333333333
aF0.9966666666666667
aI852
aa(lp889
F0.76
aF0.99
aI860
aa(lp890
F0.7450000000000001
aF0.9866666666666667
aI872
aa(lp891
F0.7675000000000001
aF0.9916666666666667
aI858
aa(lp892
F0.7474999999999999
aF0.9816666666666667
aI853
aa(lp893
F0.7433333333333332
aF0.9966666666666667
aI870
aa(lp894
F0.7916666666666667
aF0.9833333333333333
aI871
aa(lp895
F0.8074999999999999
aF0.985
aI866
aa(lp896
F0.8400000000000001
aF0.9866666666666667
aI879
aa(lp897
F0.845
aF0.99
aI871
aa(lp898
F0.8858333333333333
aF0.9916666666666667
aI859
aa(lp899
F0.9125
aF0.9916666666666667
aI868
aa(lp900
F0.8666666666666667
aF0.9966666666666667
aI860
aa(lp901
F0.9016666666666666
aF0.99
aI872
aa(lp902
F0.9083333333333332
aF0.9933333333333333
aI867
aa(lp903
F0.9366666666666666
aF1.0
aI884
aa(lp904
F0.9233333333333333
aF0.9933333333333333
aI866
aa(lp905
F0.9175
aF0.995
aI868
aa(lp906
F0.95
aF0.9966666666666667
aI878
aa(lp907
F0.9616666666666667
aF0.9866666666666667
aI846
aa(lp908
F0.9225000000000001
aF0.995
aI868
aa(lp909
F0.9483333333333335
aF0.9966666666666667
aI883
aa(lp910
F0.9666666666666666
aF0.9933333333333333
aI864
aa(lp911
F0.9608333333333333
aF0.9983333333333333
aI864
aa(lp912
F0.9741666666666666
aF0.995
aI871
aa(lp913
F0.9666666666666667
aF1.0
aI858
aa(lp914
F0.9691666666666666
aF0.9983333333333333
aI845
aa(lp915
F0.9858333333333333
aF0.9983333333333333
aI863
aa(lp916
F0.9683333333333334
aF1.0
aI863
aa(lp917
F0.9883333333333333
aF1.0
aI843
aa(lp918
F0.9683333333333333
aF0.9966666666666667
aI858
aa(lp919
F0.9683333333333334
aF1.0
aI851
aa(lp920
F0.99
aF0.9966666666666667
aI863
aa(lp921
F0.9883333333333333
aF1.0
aI880
aa(lp922
F0.9766666666666668
aF0.9966666666666667
aI856
aa(lp923
F0.98
aF1.0
aI853
aa(lp924
F0.99
aF1.0
aI850
aa(lp925
F0.9933333333333333
aF1.0
aI835
aa(lp926
F0.9983333333333333
aF1.0
aI848
aatp927
a((lp928
(lp929
F0.71
aF0.9971428571428571
aI869
aa(lp930
F0.7378571428571428
aF0.9957142857142857
aI869
aa(lp931
F0.7374999999999999
aF0.9964285714285714
aI879
aa(lp932
F0.7525000000000001
aF0.9935714285714285
aI883
aa(lp933
F0.7817857142857143
aF0.9992857142857143
aI864
aa(lp934
F0.7889285714285714
aF0.9992857142857143
aI885
aa(lp935
F0.8046428571428571
aF0.9992857142857143
aI881
aa(lp936
F0.7910714285714286
aF0.9964285714285714
aI876
aa(lp937
F0.81
aF1.0
aI866
aa(lp938
F0.7960714285714285
aF0.9978571428571429
aI881
aa(lp939
F0.8271428571428572
aF1.0
aI885
aa(lp940
F0.8582142857142857
aF0.9992857142857143
aI905
aa(lp941
F0.88
aF1.0
aI864
aa(lp942
F0.8799999999999999
aF0.9957142857142857
aI871
aa(lp943
F0.885
aF0.9942857142857143
aI878
aa(lp944
F0.9053571428571427
aF0.995
aI869
aa(lp945
F0.9132142857142858
aF0.9978571428571429
aI879
aa(lp946
F0.9235714285714285
aF0.9985714285714286
aI874
aa(lp947
F0.9442857142857142
aF0.9957142857142857
aI870
aa(lp948
F0.9360714285714287
aF0.9992857142857143
aI867
aa(lp949
F0.9557142857142857
aF1.0
aI866
aa(lp950
F0.9535714285714285
aF0.9985714285714286
aI884
aa(lp951
F0.9485714285714286
aF0.9985714285714286
aI887
aa(lp952
F0.9635714285714285
aF0.9971428571428571
aI883
aa(lp953
F0.9614285714285713
aF0.9985714285714286
aI866
aa(lp954
F0.9571428571428571
aF0.9971428571428571
aI862
aa(lp955
F0.9517857142857143
aF0.9992857142857143
aI875
aa(lp956
F0.9535714285714286
aF0.9971428571428571
aI868
aa(lp957
F0.9567857142857144
aF0.9978571428571429
aI855
aa(lp958
F0.9685714285714286
aF0.9985714285714286
aI863
aa(lp959
F0.9750000000000001
aF0.9985714285714286
aI871
aa(lp960
F0.975
aF1.0
aI859
aa(lp961
F0.9753571428571428
aF0.9992857142857143
aI880
aa(lp962
F0.9732142857142857
aF0.9992857142857143
aI868
aa(lp963
F0.9792857142857143
aF1.0
aI869
aa(lp964
F0.9917857142857143
aF0.9992857142857143
aI874
aa(lp965
F0.9885714285714285
aF1.0
aI870
aa(lp966
F0.9885714285714287
aF0.9985714285714286
aI862
aa(lp967
F0.9971428571428571
aF0.9985714285714286
aI857
aa(lp968
F0.9957142857142857
aF1.0
aI867
aa(lp969
F0.9889285714285715
aF0.9992857142857143
aI859
aa(lp970
F0.9867857142857144
aF0.9978571428571429
aI863
aa(lp971
F0.9835714285714285
aF0.9985714285714286
aI865
aa(lp972
F0.9914285714285715
aF0.9985714285714286
aI853
aa(lp973
F0.9857142857142858
aF1.0
aI845
aa(lp974
F0.9875
aF0.9992857142857143
aI874
aa(lp975
F0.9871428571428571
aF1.0
aI864
aa(lp976
F0.9907142857142858
aF1.0
aI853
aa(lp977
F0.9935714285714285
aF1.0
aI857
aa(lp978
F0.9953571428571428
aF0.9992857142857143
aI861
aa(lp979
(lp980
F0.5858333333333333
aF0.9883333333333333
aI869
aa(lp981
F0.6333333333333333
aF1.0
aI869
aa(lp982
F0.615
aF0.9966666666666667
aI879
aa(lp983
F0.6483333333333333
aF1.0
aI883
aa(lp984
F0.6708333333333334
aF0.995
aI864
aa(lp985
F0.6825
aF0.9916666666666667
aI885
aa(lp986
F0.7224999999999999
aF0.995
aI881
aa(lp987
F0.6875
aF0.9883333333333333
aI876
aa(lp988
F0.6858333333333333
aF0.995
aI866
aa(lp989
F0.7016666666666667
aF0.9933333333333333
aI881
aa(lp990
F0.7383333333333333
aF1.0
aI885
aa(lp991
F0.7808333333333333
aF0.9983333333333333
aI905
aa(lp992
F0.8
aF0.9966666666666667
aI864
aa(lp993
F0.8191666666666667
aF0.9983333333333333
aI871
aa(lp994
F0.8216666666666668
aF0.9933333333333333
aI878
aa(lp995
F0.8333333333333333
aF0.9833333333333333
aI869
aa(lp996
F0.8733333333333333
aF0.9933333333333333
aI879
aa(lp997
F0.8708333333333333
aF0.9916666666666667
aI874
aa(lp998
F0.8891666666666668
aF0.9916666666666667
aI870
aa(lp999
F0.8816666666666666
aF0.9966666666666667
aI867
aa(lp1000
F0.8941666666666667
aF0.9916666666666667
aI866
aa(lp1001
F0.8866666666666667
aF0.9833333333333333
aI884
aa(lp1002
F0.8899999999999999
aF0.9966666666666667
aI887
aa(lp1003
F0.9141666666666666
aF0.995
aI883
aa(lp1004
F0.9208333333333334
aF0.995
aI866
aa(lp1005
F0.9258333333333333
aF0.9983333333333333
aI862
aa(lp1006
F0.9275
aF0.9983333333333333
aI875
aa(lp1007
F0.9091666666666667
aF0.9916666666666667
aI868
aa(lp1008
F0.9225
aF0.9883333333333333
aI855
aa(lp1009
F0.9366666666666665
aF0.9933333333333333
aI863
aa(lp1010
F0.9358333333333333
aF0.9983333333333333
aI871
aa(lp1011
F0.9425
aF0.9983333333333333
aI859
aa(lp1012
F0.9441666666666666
aF0.995
aI880
aa(lp1013
F0.95
aF1.0
aI868
aa(lp1014
F0.96
aF0.9966666666666667
aI869
aa(lp1015
F0.9783333333333334
aF1.0
aI874
aa(lp1016
F0.9666666666666667
aF1.0
aI870
aa(lp1017
F0.9716666666666667
aF0.9966666666666667
aI862
aa(lp1018
F0.9916666666666667
aF1.0
aI857
aa(lp1019
F0.9833333333333333
aF1.0
aI867
aa(lp1020
F0.9833333333333333
aF1.0
aI859
aa(lp1021
F0.9816666666666667
aF1.0
aI863
aa(lp1022
F0.9766666666666667
aF1.0
aI865
aa(lp1023
F0.9808333333333332
aF0.9983333333333333
aI853
aa(lp1024
F0.9733333333333334
aF1.0
aI845
aa(lp1025
F0.9758333333333333
aF0.9983333333333333
aI874
aa(lp1026
F0.9725
aF0.9983333333333333
aI864
aa(lp1027
F0.975
aF1.0
aI853
aa(lp1028
F0.9916666666666667
aF1.0
aI857
aa(lp1029
F0.9933333333333333
aF1.0
aI861
aatp1030
a((lp1031
(lp1032
F0.7025000000000001
aF0.995
aI875
aa(lp1033
F0.750357142857143
aF0.9892857142857143
aI884
aa(lp1034
F0.7464285714285714
aF0.9985714285714286
aI883
aa(lp1035
F0.7807142857142857
aF0.9942857142857143
aI877
aa(lp1036
F0.7825
aF0.9978571428571429
aI879
aa(lp1037
F0.7525000000000001
aF0.9992857142857143
aI885
aa(lp1038
F0.7489285714285714
aF0.9992857142857143
aI885
aa(lp1039
F0.8082142857142858
aF0.9978571428571429
aI887
aa(lp1040
F0.8125
aF0.9992857142857143
aI900
aa(lp1041
F0.8235714285714286
aF1.0
aI868
aa(lp1042
F0.8303571428571429
aF0.9992857142857143
aI877
aa(lp1043
F0.842857142857143
aF0.9985714285714286
aI869
aa(lp1044
F0.8532142857142857
aF0.9978571428571429
aI877
aa(lp1045
F0.8667857142857143
aF0.9964285714285714
aI879
aa(lp1046
F0.8803571428571428
aF0.9964285714285714
aI867
aa(lp1047
F0.8714285714285714
aF1.0
aI869
aa(lp1048
F0.9110714285714286
aF0.9935714285714285
aI885
aa(lp1049
F0.9089285714285715
aF0.9978571428571429
aI870
aa(lp1050
F0.9157142857142857
aF0.9985714285714286
aI867
aa(lp1051
F0.9264285714285714
aF1.0
aI859
aa(lp1052
F0.9464285714285714
aF1.0
aI847
aa(lp1053
F0.9439285714285715
aF0.9978571428571429
aI858
aa(lp1054
F0.9621428571428572
aF1.0
aI879
aa(lp1055
F0.9621428571428572
aF1.0
aI865
aa(lp1056
F0.9678571428571429
aF1.0
aI855
aa(lp1057
F0.9639285714285715
aF0.9978571428571429
aI875
aa(lp1058
F0.9632142857142858
aF0.9992857142857143
aI870
aa(lp1059
F0.9685714285714285
aF1.0
aI864
aa(lp1060
F0.9750000000000001
aF0.9985714285714286
aI855
aa(lp1061
F0.9835714285714285
aF0.9985714285714286
aI854
aa(lp1062
F0.9867857142857143
aF0.9992857142857143
aI855
aa(lp1063
F0.9857142857142858
aF1.0
aI851
aa(lp1064
F0.9842857142857143
aF1.0
aI852
aa(lp1065
F0.9857142857142858
aF1.0
aI874
aa(lp1066
F0.9871428571428571
aF1.0
aI874
aa(lp1067
F0.9789285714285714
aF0.9992857142857143
aI871
aa(lp1068
F0.9839285714285715
aF0.9978571428571429
aI861
aa(lp1069
F0.9832142857142857
aF0.9992857142857143
aI886
aa(lp1070
F0.9892857142857143
aF1.0
aI870
aa(lp1071
F0.9746428571428573
aF0.9992857142857143
aI874
aa(lp1072
F0.9878571428571429
aF1.0
aI855
aa(lp1073
F0.9821428571428571
aF1.0
aI866
aa(lp1074
F0.9878571428571429
aF1.0
aI858
aa(lp1075
F0.9821428571428571
aF1.0
aI862
aa(lp1076
F0.9857142857142858
aF0.9985714285714286
aI852
aa(lp1077
F0.9814285714285714
aF1.0
aI848
aa(lp1078
F0.9853571428571428
aF0.9978571428571429
aI848
aa(lp1079
F0.9792857142857143
aF1.0
aI871
aa(lp1080
F0.9878571428571429
aF1.0
aI870
aa(lp1081
F0.9914285714285714
aF1.0
aI858
aa(lp1082
(lp1083
F0.575
aF0.9866666666666667
aI875
aa(lp1084
F0.6008333333333333
aF0.975
aI884
aa(lp1085
F0.6283333333333333
aF0.98
aI883
aa(lp1086
F0.6308333333333334
aF0.9883333333333333
aI877
aa(lp1087
F0.6566666666666667
aF0.9933333333333333
aI879
aa(lp1088
F0.6516666666666667
aF0.99
aI885
aa(lp1089
F0.6508333333333333
aF0.9983333333333333
aI885
aa(lp1090
F0.6950000000000001
aF0.99
aI887
aa(lp1091
F0.72
aF0.99
aI900
aa(lp1092
F0.7100000000000001
aF0.99
aI868
aa(lp1093
F0.7091666666666667
aF0.995
aI877
aa(lp1094
F0.7508333333333332
aF0.995
aI869
aa(lp1095
F0.7416666666666667
aF0.9966666666666667
aI877
aa(lp1096
F0.7733333333333334
aF0.9966666666666667
aI879
aa(lp1097
F0.7591666666666667
aF0.9883333333333333
aI867
aa(lp1098
F0.78
aF0.9966666666666667
aI869
aa(lp1099
F0.8533333333333333
aF0.9866666666666667
aI885
aa(lp1100
F0.8383333333333334
aF0.9966666666666667
aI870
aa(lp1101
F0.8508333333333333
aF0.995
aI867
aa(lp1102
F0.8766666666666667
aF1.0
aI859
aa(lp1103
F0.8891666666666668
aF0.9916666666666667
aI847
aa(lp1104
F0.8825000000000001
aF0.995
aI858
aa(lp1105
F0.9158333333333333
aF0.995
aI879
aa(lp1106
F0.9258333333333333
aF0.9983333333333333
aI865
aa(lp1107
F0.9225
aF0.9983333333333333
aI855
aa(lp1108
F0.9275
aF0.995
aI875
aa(lp1109
F0.9391666666666667
aF0.995
aI870
aa(lp1110
F0.9216666666666666
aF1.0
aI864
aa(lp1111
F0.9316666666666666
aF0.9966666666666667
aI855
aa(lp1112
F0.96
aF0.9933333333333333
aI854
aa(lp1113
F0.9733333333333334
aF1.0
aI855
aa(lp1114
F0.965
aF1.0
aI851
aa(lp1115
F0.9558333333333333
aF0.9983333333333333
aI852
aa(lp1116
F0.9616666666666667
aF0.9966666666666667
aI874
aa(lp1117
F0.9591666666666667
aF0.9983333333333333
aI874
aa(lp1118
F0.9475
aF0.9983333333333333
aI871
aa(lp1119
F0.96
aF0.9966666666666667
aI861
aa(lp1120
F0.9508333333333333
aF0.9983333333333333
aI886
aa(lp1121
F0.975
aF1.0
aI870
aa(lp1122
F0.945
aF1.0
aI874
aa(lp1123
F0.9616666666666667
aF1.0
aI855
aa(lp1124
F0.9516666666666667
aF1.0
aI866
aa(lp1125
F0.9616666666666667
aF1.0
aI858
aa(lp1126
F0.9425
aF0.9983333333333333
aI862
aa(lp1127
F0.955
aF1.0
aI852
aa(lp1128
F0.95
aF1.0
aI848
aa(lp1129
F0.9716666666666667
aF0.9966666666666667
aI848
aa(lp1130
F0.9524999999999999
aF0.9983333333333333
aI871
aa(lp1131
F0.9741666666666666
aF0.9983333333333333
aI870
aa(lp1132
F0.9774999999999999
aF0.9983333333333333
aI858
aatp1133
a((lp1134
(lp1135
F0.7007142857142856
aF0.9985714285714286
aI859
aa(lp1136
F0.7214285714285715
aF0.9914285714285714
aI862
aa(lp1137
F0.7539285714285715
aF0.9964285714285714
aI872
aa(lp1138
F0.7457142857142858
aF0.9985714285714286
aI882
aa(lp1139
F0.7660714285714285
aF0.9992857142857143
aI884
aa(lp1140
F0.7632142857142857
aF0.9992857142857143
aI875
aa(lp1141
F0.7778571428571428
aF0.9985714285714286
aI881
aa(lp1142
F0.7964285714285715
aF0.9942857142857143
aI888
aa(lp1143
F0.8221428571428573
aF0.9985714285714286
aI888
aa(lp1144
F0.8039285714285714
aF0.9964285714285714
aI878
aa(lp1145
F0.7921428571428571
aF1.0
aI872
aa(lp1146
F0.7989285714285714
aF0.9978571428571429
aI882
aa(lp1147
F0.8478571428571429
aF0.9985714285714286
aI888
aa(lp1148
F0.8625
aF0.9964285714285714
aI861
aa(lp1149
F0.8742857142857143
aF0.99
aI861
aa(lp1150
F0.8857142857142857
aF0.9971428571428571
aI861
aa(lp1151
F0.8896428571428572
aF0.9964285714285714
aI874
aa(lp1152
F0.8971428571428572
aF0.9985714285714286
aI879
aa(lp1153
F0.9135714285714287
aF0.9985714285714286
aI857
aa(lp1154
F0.9185714285714286
aF0.9942857142857143
aI866
aa(lp1155
F0.9253571428571429
aF0.9992857142857143
aI891
aa(lp1156
F0.9264285714285714
aF0.9985714285714286
aI874
aa(lp1157
F0.9342857142857143
aF1.0
aI875
aa(lp1158
F0.9342857142857143
aF1.0
aI876
aa(lp1159
F0.9496428571428571
aF0.9935714285714285
aI840
aa(lp1160
F0.9557142857142857
aF1.0
aI879
aa(lp1161
F0.9617857142857144
aF0.9992857142857143
aI857
aa(lp1162
F0.9764285714285714
aF0.9985714285714286
aI857
aa(lp1163
F0.9682142857142857
aF0.9978571428571429
aI875
aa(lp1164
F0.9517857142857143
aF0.9992857142857143
aI855
aa(lp1165
F0.9639285714285714
aF0.9992857142857143
aI863
aa(lp1166
F0.9557142857142857
aF0.9985714285714286
aI868
aa(lp1167
F0.9682142857142857
aF0.9992857142857143
aI855
aa(lp1168
F0.9682142857142857
aF0.9992857142857143
aI859
aa(lp1169
F0.9728571428571429
aF0.9985714285714286
aI860
aa(lp1170
F0.9660714285714286
aF0.9964285714285714
aI862
aa(lp1171
F0.9796428571428571
aF0.9992857142857143
aI876
aa(lp1172
F0.9760714285714286
aF0.9992857142857143
aI846
aa(lp1173
F0.9774999999999999
aF0.9964285714285714
aI853
aa(lp1174
F0.9782142857142858
aF0.9992857142857143
aI877
aa(lp1175
F0.9810714285714286
aF0.9992857142857143
aI862
aa(lp1176
F0.98
aF1.0
aI856
aa(lp1177
F0.9664285714285714
aF0.9985714285714286
aI864
aa(lp1178
F0.975
aF1.0
aI853
aa(lp1179
F0.9782142857142858
aF0.9992857142857143
aI836
aa(lp1180
F0.9728571428571429
aF0.9971428571428571
aI848
aa(lp1181
F0.9760714285714285
aF0.9978571428571429
aI853
aa(lp1182
F0.9892857142857143
aF1.0
aI870
aa(lp1183
F0.9867857142857144
aF0.9978571428571429
aI874
aa(lp1184
F0.9853571428571429
aF0.9992857142857143
aI878
aa(lp1185
(lp1186
F0.59
aF1.0
aI859
aa(lp1187
F0.5808333333333333
aF0.9883333333333333
aI862
aa(lp1188
F0.6241666666666666
aF0.9816666666666667
aI872
aa(lp1189
F0.6541666666666667
aF0.9983333333333333
aI882
aa(lp1190
F0.6541666666666667
aF0.9983333333333333
aI884
aa(lp1191
F0.6950000000000001
aF0.9966666666666667
aI875
aa(lp1192
F0.6924999999999999
aF0.995
aI881
aa(lp1193
F0.6849999999999999
aF0.99
aI888
aa(lp1194
F0.6875
aF0.9916666666666667
aI888
aa(lp1195
F0.6758333333333333
aF0.985
aI878
aa(lp1196
F0.6933333333333334
aF0.9933333333333333
aI872
aa(lp1197
F0.6924999999999999
aF0.995
aI882
aa(lp1198
F0.745
aF0.99
aI888
aa(lp1199
F0.7366666666666666
aF0.9833333333333333
aI861
aa(lp1200
F0.7508333333333334
aF0.9716666666666667
aI861
aa(lp1201
F0.7841666666666667
aF0.9916666666666667
aI861
aa(lp1202
F0.7841666666666666
aF0.9883333333333333
aI874
aa(lp1203
F0.8116666666666665
aF0.9933333333333333
aI879
aa(lp1204
F0.8475
aF0.9916666666666667
aI857
aa(lp1205
F0.8700000000000001
aF0.9866666666666667
aI866
aa(lp1206
F0.8724999999999999
aF0.9983333333333333
aI891
aa(lp1207
F0.8716666666666666
aF0.9966666666666667
aI874
aa(lp1208
F0.8674999999999999
aF0.9983333333333333
aI875
aa(lp1209
F0.8941666666666667
aF0.9983333333333333
aI876
aa(lp1210
F0.9133333333333333
aF0.99
aI840
aa(lp1211
F0.9325
aF0.9983333333333333
aI879
aa(lp1212
F0.935
aF0.9966666666666667
aI857
aa(lp1213
F0.9383333333333335
aF0.9966666666666667
aI857
aa(lp1214
F0.9166666666666667
aF0.9966666666666667
aI875
aa(lp1215
F0.9283333333333335
aF0.9966666666666667
aI855
aa(lp1216
F0.9141666666666667
aF0.9983333333333333
aI863
aa(lp1217
F0.9141666666666667
aF0.9916666666666667
aI868
aa(lp1218
F0.9483333333333334
aF1.0
aI855
aa(lp1219
F0.9508333333333334
aF0.995
aI859
aa(lp1220
F0.9483333333333333
aF0.9933333333333333
aI860
aa(lp1221
F0.9366666666666668
aF0.9966666666666667
aI862
aa(lp1222
F0.955
aF1.0
aI876
aa(lp1223
F0.9516666666666667
aF0.9966666666666667
aI846
aa(lp1224
F0.9441666666666666
aF0.995
aI853
aa(lp1225
F0.9591666666666667
aF0.995
aI877
aa(lp1226
F0.9441666666666666
aF0.9916666666666667
aI862
aa(lp1227
F0.9516666666666667
aF1.0
aI856
aa(lp1228
F0.9558333333333333
aF0.995
aI864
aa(lp1229
F0.945
aF1.0
aI853
aa(lp1230
F0.9641666666666667
aF0.9983333333333333
aI836
aa(lp1231
F0.9516666666666667
aF0.9966666666666667
aI848
aa(lp1232
F0.95
aF0.9966666666666667
aI853
aa(lp1233
F0.9733333333333334
aF0.9966666666666667
aI870
aa(lp1234
F0.9691666666666667
aF0.995
aI874
aa(lp1235
F0.9774999999999999
aF0.9983333333333333
aI878
aatp1236
a((lp1237
(lp1238
F0.7403571428571429
aF0.9778571428571429
aI878
aa(lp1239
F0.7296428571428571
aF0.9721428571428572
aI874
aa(lp1240
F0.7478571428571428
aF0.9957142857142857
aI901
aa(lp1241
F0.7221428571428572
aF0.9957142857142857
aI887
aa(lp1242
F0.7346428571428572
aF0.9978571428571429
aI904
aa(lp1243
F0.7578571428571429
aF1.0
aI876
aa(lp1244
F0.79
aF0.9985714285714286
aI870
aa(lp1245
F0.7978571428571428
aF0.9985714285714286
aI879
aa(lp1246
F0.8221428571428572
aF1.0
aI891
aa(lp1247
F0.8421428571428571
aF0.9957142857142857
aI899
aa(lp1248
F0.8521428571428572
aF0.9971428571428571
aI875
aa(lp1249
F0.8567857142857143
aF0.9978571428571429
aI894
aa(lp1250
F0.8732142857142857
aF0.9978571428571429
aI879
aa(lp1251
F0.875
aF0.9985714285714286
aI859
aa(lp1252
F0.9182142857142856
aF0.9978571428571429
aI865
aa(lp1253
F0.9035714285714285
aF0.9957142857142857
aI875
aa(lp1254
F0.9196428571428572
aF0.9964285714285714
aI894
aa(lp1255
F0.9146428571428572
aF0.9964285714285714
aI888
aa(lp1256
F0.9160714285714286
aF0.9978571428571429
aI879
aa(lp1257
F0.9421428571428571
aF0.9971428571428571
aI893
aa(lp1258
F0.9421428571428572
aF1.0
aI880
aa(lp1259
F0.9267857142857143
aF0.995
aI868
aa(lp1260
F0.9514285714285713
aF0.9985714285714286
aI867
aa(lp1261
F0.9589285714285714
aF0.9978571428571429
aI859
aa(lp1262
F0.9528571428571428
aF0.9957142857142857
aI866
aa(lp1263
F0.9578571428571427
aF0.9985714285714286
aI850
aa(lp1264
F0.9735714285714285
aF1.0
aI868
aa(lp1265
F0.9871428571428571
aF0.9985714285714286
aI854
aa(lp1266
F0.9789285714285714
aF0.9978571428571429
aI877
aa(lp1267
F0.9807142857142858
aF1.0
aI870
aa(lp1268
F0.9835714285714285
aF1.0
aI861
aa(lp1269
F0.9860714285714286
aF0.9992857142857143
aI855
aa(lp1270
F0.9867857142857143
aF0.9992857142857143
aI855
aa(lp1271
F0.9835714285714285
aF1.0
aI860
aa(lp1272
F0.9871428571428571
aF1.0
aI880
aa(lp1273
F0.9892857142857143
aF1.0
aI866
aa(lp1274
F0.9871428571428571
aF1.0
aI870
aa(lp1275
F0.9985714285714286
aF1.0
aI865
aa(lp1276
F0.9957142857142857
aF1.0
aI834
aa(lp1277
F1.0
aF1.0
aI859
aa(lp1278
F0.9971428571428571
aF1.0
aI860
aa(lp1279
F0.9957142857142857
aF1.0
aI868
aa(lp1280
F0.9978571428571429
aF1.0
aI867
aa(lp1281
F0.9992857142857143
aF1.0
aI854
aa(lp1282
F0.9985714285714286
aF1.0
aI848
aa(lp1283
F0.9928571428571429
aF1.0
aI873
aa(lp1284
F0.9857142857142858
aF1.0
aI852
aa(lp1285
F0.9960714285714286
aF0.9992857142857143
aI859
aa(lp1286
F0.9907142857142858
aF1.0
aI851
aa(lp1287
F0.9928571428571429
aF1.0
aI839
aa(lp1288
(lp1289
F0.5833333333333333
aF0.9433333333333334
aI878
aa(lp1290
F0.5758333333333334
aF0.955
aI874
aa(lp1291
F0.6425000000000001
aF0.9883333333333333
aI901
aa(lp1292
F0.5991666666666666
aF0.9916666666666667
aI887
aa(lp1293
F0.615
aF1.0
aI904
aa(lp1294
F0.6583333333333333
aF1.0
aI876
aa(lp1295
F0.6966666666666665
aF0.9966666666666667
aI870
aa(lp1296
F0.7008333333333333
aF0.9983333333333333
aI879
aa(lp1297
F0.6983333333333333
aF0.9966666666666667
aI891
aa(lp1298
F0.7266666666666666
aF0.9933333333333333
aI899
aa(lp1299
F0.7383333333333333
aF0.9933333333333333
aI875
aa(lp1300
F0.7758333333333334
aF0.9983333333333333
aI894
aa(lp1301
F0.7775
aF0.9983333333333333
aI879
aa(lp1302
F0.7866666666666666
aF1.0
aI859
aa(lp1303
F0.8541666666666667
aF0.995
aI865
aa(lp1304
F0.8758333333333332
aF0.995
aI875
aa(lp1305
F0.8608333333333333
aF0.9983333333333333
aI894
aa(lp1306
F0.8783333333333333
aF0.99
aI888
aa(lp1307
F0.8783333333333334
aF0.9966666666666667
aI879
aa(lp1308
F0.8875
aF0.985
aI893
aa(lp1309
F0.905
aF1.0
aI880
aa(lp1310
F0.8899999999999999
aF0.9966666666666667
aI868
aa(lp1311
F0.9041666666666666
aF0.995
aI867
aa(lp1312
F0.9266666666666667
aF0.9966666666666667
aI859
aa(lp1313
F0.9191666666666667
aF0.995
aI866
aa(lp1314
F0.9075
aF0.9983333333333333
aI850
aa(lp1315
F0.9425
aF0.9983333333333333
aI868
aa(lp1316
F0.9466666666666668
aF0.9966666666666667
aI854
aa(lp1317
F0.96
aF0.9966666666666667
aI877
aa(lp1318
F0.9758333333333333
aF0.9983333333333333
aI870
aa(lp1319
F0.965
aF1.0
aI861
aa(lp1320
F0.9683333333333334
aF1.0
aI855
aa(lp1321
F0.9666666666666668
aF0.9966666666666667
aI855
aa(lp1322
F0.9683333333333334
aF1.0
aI860
aa(lp1323
F0.9708333333333332
aF0.995
aI880
aa(lp1324
F0.9816666666666667
aF1.0
aI866
aa(lp1325
F0.9758333333333333
aF0.9983333333333333
aI870
aa(lp1326
F0.9841666666666666
aF0.9983333333333333
aI865
aa(lp1327
F0.9916666666666667
aF1.0
aI834
aa(lp1328
F1.0
aF1.0
aI859
aa(lp1329
F0.9933333333333333
aF1.0
aI860
aa(lp1330
F0.9916666666666667
aF1.0
aI868
aa(lp1331
F0.995
aF1.0
aI867
aa(lp1332
F0.99
aF1.0
aI854
aa(lp1333
F0.9883333333333333
aF1.0
aI848
aa(lp1334
F0.9816666666666667
aF1.0
aI873
aa(lp1335
F0.9641666666666667
aF0.9983333333333333
aI852
aa(lp1336
F0.9883333333333333
aF0.9966666666666667
aI859
aa(lp1337
F0.9883333333333333
aF1.0
aI851
aa(lp1338
F0.9916666666666667
aF1.0
aI839
aatp1339
a((lp1340
(lp1341
F0.7282142857142857
aF0.9935714285714285
aI882
aa(lp1342
F0.7489285714285715
aF0.9764285714285714
aI862
aa(lp1343
F0.7639285714285715
aF0.9978571428571429
aI880
aa(lp1344
F0.7321428571428572
aF0.9985714285714286
aI874
aa(lp1345
F0.7417857142857143
aF0.9992857142857143
aI885
aa(lp1346
F0.7407142857142858
aF1.0
aI882
aa(lp1347
F0.8203571428571429
aF0.9992857142857143
aI872
aa(lp1348
F0.8246428571428572
aF0.9978571428571429
aI889
aa(lp1349
F0.8317857142857142
aF0.9992857142857143
aI875
aa(lp1350
F0.8303571428571429
aF0.9992857142857143
aI884
aa(lp1351
F0.8464285714285714
aF0.9971428571428571
aI871
aa(lp1352
F0.8521428571428571
aF0.9985714285714286
aI863
aa(lp1353
F0.8485714285714285
aF1.0
aI886
aa(lp1354
F0.8867857142857143
aF0.9992857142857143
aI870
aa(lp1355
F0.9067857142857143
aF0.9992857142857143
aI885
aa(lp1356
F0.9060714285714286
aF0.9978571428571429
aI884
aa(lp1357
F0.9185714285714286
aF0.9971428571428571
aI872
aa(lp1358
F0.9185714285714286
aF0.9985714285714286
aI862
aa(lp1359
F0.935
aF1.0
aI886
aa(lp1360
F0.9510714285714286
aF0.9992857142857143
aI870
aa(lp1361
F0.9610714285714286
aF0.9964285714285714
aI867
aa(lp1362
F0.9649999999999999
aF0.9914285714285714
aI859
aa(lp1363
F0.9703571428571429
aF0.9992857142857143
aI877
aa(lp1364
F0.9757142857142858
aF1.0
aI870
aa(lp1365
F0.9828571428571429
aF0.9971428571428571
aI845
aa(lp1366
F0.9857142857142858
aF1.0
aI854
aa(lp1367
F0.975
aF1.0
aI860
aa(lp1368
F0.9882142857142857
aF0.9992857142857143
aI869
aa(lp1369
F0.9871428571428571
aF0.9985714285714286
aI848
aa(lp1370
F0.9757142857142858
aF1.0
aI864
aa(lp1371
F0.9885714285714285
aF1.0
aI857
aa(lp1372
F0.9885714285714285
aF1.0
aI865
aa(lp1373
F0.9882142857142857
aF0.9992857142857143
aI863
aa(lp1374
F0.9914285714285715
aF0.9985714285714286
aI873
aa(lp1375
F0.9885714285714285
aF1.0
aI870
aa(lp1376
F0.9957142857142857
aF1.0
aI870
aa(lp1377
F0.9932142857142857
aF0.9992857142857143
aI859
aa(lp1378
F0.99
aF1.0
aI865
aa(lp1379
F0.9928571428571429
aF1.0
aI869
aa(lp1380
F0.9907142857142858
aF1.0
aI866
aa(lp1381
F0.9921428571428571
aF1.0
aI860
aa(lp1382
F0.9942857142857143
aF1.0
aI854
aa(lp1383
F0.9896428571428572
aF0.9992857142857143
aI858
aa(lp1384
F0.9942857142857143
aF1.0
aI875
aa(lp1385
F0.9971428571428571
aF1.0
aI844
aa(lp1386
F0.9964285714285714
aF1.0
aI867
aa(lp1387
F0.9992857142857143
aF1.0
aI858
aa(lp1388
F0.9971428571428571
aF1.0
aI871
aa(lp1389
F0.9939285714285715
aF0.9992857142857143
aI853
aa(lp1390
F0.9932142857142857
aF0.9992857142857143
aI858
aa(lp1391
(lp1392
F0.5774999999999999
aF0.985
aI882
aa(lp1393
F0.5908333333333333
aF0.965
aI862
aa(lp1394
F0.6300000000000001
aF0.9833333333333333
aI880
aa(lp1395
F0.6441666666666667
aF0.9916666666666667
aI874
aa(lp1396
F0.6508333333333334
aF0.995
aI885
aa(lp1397
F0.6933333333333334
aF0.9966666666666667
aI882
aa(lp1398
F0.7175
aF0.9916666666666667
aI872
aa(lp1399
F0.7016666666666667
aF0.9966666666666667
aI889
aa(lp1400
F0.73
aF0.9933333333333333
aI875
aa(lp1401
F0.7425
aF0.9916666666666667
aI884
aa(lp1402
F0.7733333333333334
aF0.9933333333333333
aI871
aa(lp1403
F0.7858333333333333
aF0.9983333333333333
aI863
aa(lp1404
F0.7683333333333333
aF0.9966666666666667
aI886
aa(lp1405
F0.7949999999999999
aF0.9933333333333333
aI870
aa(lp1406
F0.8483333333333334
aF0.99
aI885
aa(lp1407
F0.86
aF0.99
aI884
aa(lp1408
F0.8825000000000001
aF0.9983333333333333
aI872
aa(lp1409
F0.8766666666666667
aF0.9966666666666667
aI862
aa(lp1410
F0.8866666666666667
aF0.9933333333333333
aI886
aa(lp1411
F0.9208333333333333
aF0.9983333333333333
aI870
aa(lp1412
F0.9358333333333334
aF0.9816666666666667
aI867
aa(lp1413
F0.9316666666666666
aF0.9933333333333333
aI859
aa(lp1414
F0.9383333333333332
aF0.9933333333333333
aI877
aa(lp1415
F0.9624999999999999
aF0.995
aI870
aa(lp1416
F0.9716666666666667
aF0.9966666666666667
aI845
aa(lp1417
F0.9708333333333333
aF0.9983333333333333
aI854
aa(lp1418
F0.9508333333333333
aF0.9983333333333333
aI860
aa(lp1419
F0.9850000000000001
aF0.9966666666666667
aI869
aa(lp1420
F0.9766666666666667
aF1.0
aI848
aa(lp1421
F0.9683333333333334
aF1.0
aI864
aa(lp1422
F0.9758333333333333
aF0.9983333333333333
aI857
aa(lp1423
F0.9783333333333334
aF1.0
aI865
aa(lp1424
F0.9783333333333334
aF1.0
aI863
aa(lp1425
F0.9833333333333333
aF1.0
aI873
aa(lp1426
F0.9816666666666667
aF1.0
aI870
aa(lp1427
F0.9833333333333333
aF1.0
aI870
aa(lp1428
F0.9766666666666667
aF1.0
aI859
aa(lp1429
F0.98
aF1.0
aI865
aa(lp1430
F0.9866666666666666
aF0.9966666666666667
aI869
aa(lp1431
F0.9824999999999999
aF0.9983333333333333
aI866
aa(lp1432
F0.9966666666666667
aF1.0
aI860
aa(lp1433
F0.9866666666666667
aF1.0
aI854
aa(lp1434
F0.9808333333333332
aF0.9983333333333333
aI858
aa(lp1435
F0.9866666666666667
aF1.0
aI875
aa(lp1436
F0.9941666666666666
aF0.9983333333333333
aI844
aa(lp1437
F0.99
aF1.0
aI867
aa(lp1438
F0.995
aF1.0
aI858
aa(lp1439
F0.9766666666666667
aF1.0
aI871
aa(lp1440
F0.9791666666666666
aF0.9983333333333333
aI853
aa(lp1441
F0.9841666666666666
aF0.9983333333333333
aI858
aatp1442
a((lp1443
(lp1444
F0.7110714285714286
aF0.995
aI881
aa(lp1445
F0.7246428571428571
aF0.985
aI895
aa(lp1446
F0.7532142857142856
aF0.995
aI886
aa(lp1447
F0.7592857142857143
aF0.9985714285714286
aI885
aa(lp1448
F0.7457142857142857
aF1.0
aI867
aa(lp1449
F0.7732142857142857
aF0.9992857142857143
aI887
aa(lp1450
F0.7678571428571429
aF1.0
aI877
aa(lp1451
F0.7575000000000001
aF0.9978571428571429
aI884
aa(lp1452
F0.7685714285714286
aF1.0
aI889
aa(lp1453
F0.7907142857142857
aF1.0
aI889
aa(lp1454
F0.8092857142857143
aF1.0
aI881
aa(lp1455
F0.8364285714285715
aF0.9985714285714286
aI891
aa(lp1456
F0.867142857142857
aF0.9985714285714286
aI860
aa(lp1457
F0.8735714285714284
aF0.9985714285714286
aI874
aa(lp1458
F0.8928571428571428
aF0.9971428571428571
aI877
aa(lp1459
F0.8967857142857143
aF0.9978571428571429
aI870
aa(lp1460
F0.8971428571428572
aF0.9985714285714286
aI861
aa(lp1461
F0.9028571428571428
aF0.9985714285714286
aI888
aa(lp1462
F0.9085714285714286
aF0.9957142857142857
aI856
aa(lp1463
F0.9267857142857143
aF0.9978571428571429
aI869
aa(lp1464
F0.9303571428571429
aF0.9978571428571429
aI883
aa(lp1465
F0.9242857142857144
aF0.9942857142857143
aI879
aa(lp1466
F0.9207142857142857
aF0.9971428571428571
aI862
aa(lp1467
F0.9392857142857143
aF0.9942857142857143
aI890
aa(lp1468
F0.9492857142857143
aF1.0
aI864
aa(lp1469
F0.96
aF0.9971428571428571
aI868
aa(lp1470
F0.965
aF0.9971428571428571
aI868
aa(lp1471
F0.9450000000000001
aF0.9942857142857143
aI867
aa(lp1472
F0.9721428571428572
aF1.0
aI876
aa(lp1473
F0.9614285714285714
aF1.0
aI868
aa(lp1474
F0.9735714285714285
aF0.9985714285714286
aI862
aa(lp1475
F0.9703571428571429
aF0.9992857142857143
aI856
aa(lp1476
F0.9682142857142857
aF0.9992857142857143
aI878
aa(lp1477
F0.9814285714285714
aF1.0
aI848
aa(lp1478
F0.9817857142857143
aF0.995
aI865
aa(lp1479
F0.9828571428571429
aF1.0
aI837
aa(lp1480
F0.9835714285714285
aF1.0
aI846
aa(lp1481
F0.9889285714285715
aF0.9992857142857143
aI867
aa(lp1482
F0.9910714285714286
aF0.9992857142857143
aI866
aa(lp1483
F0.985
aF1.0
aI839
aa(lp1484
F0.9892857142857143
aF1.0
aI856
aa(lp1485
F0.98
aF1.0
aI847
aa(lp1486
F0.9917857142857143
aF0.9992857142857143
aI861
aa(lp1487
F0.9860714285714286
aF0.9992857142857143
aI857
aa(lp1488
F0.9935714285714285
aF1.0
aI859
aa(lp1489
F0.9928571428571429
aF1.0
aI844
aa(lp1490
F0.9935714285714285
aF1.0
aI842
aa(lp1491
F0.99
aF0.9985714285714286
aI855
aa(lp1492
F0.9946428571428572
aF0.9992857142857143
aI855
aa(lp1493
F0.99
aF0.9985714285714286
aI859
aa(lp1494
(lp1495
F0.5449999999999999
aF0.9933333333333333
aI881
aa(lp1496
F0.6066666666666667
aF0.9866666666666667
aI895
aa(lp1497
F0.6275
aF0.9916666666666667
aI886
aa(lp1498
F0.6308333333333334
aF0.995
aI885
aa(lp1499
F0.6433333333333333
aF0.9966666666666667
aI867
aa(lp1500
F0.6458333333333333
aF0.995
aI887
aa(lp1501
F0.6491666666666667
aF0.9983333333333333
aI877
aa(lp1502
F0.6325000000000001
aF0.9983333333333333
aI884
aa(lp1503
F0.6733333333333333
aF1.0
aI889
aa(lp1504
F0.6966666666666667
aF1.0
aI889
aa(lp1505
F0.72
aF1.0
aI881
aa(lp1506
F0.7333333333333333
aF1.0
aI891
aa(lp1507
F0.72
aF1.0
aI860
aa(lp1508
F0.7816666666666665
aF0.9933333333333333
aI874
aa(lp1509
F0.7858333333333333
aF0.9983333333333333
aI877
aa(lp1510
F0.815
aF1.0
aI870
aa(lp1511
F0.8191666666666666
aF0.9916666666666667
aI861
aa(lp1512
F0.8191666666666666
aF0.995
aI888
aa(lp1513
F0.8058333333333333
aF0.9883333333333333
aI856
aa(lp1514
F0.855
aF0.99
aI869
aa(lp1515
F0.8666666666666667
aF0.9866666666666667
aI883
aa(lp1516
F0.8524999999999999
aF0.9916666666666667
aI879
aa(lp1517
F0.8516666666666668
aF0.9866666666666667
aI862
aa(lp1518
F0.8866666666666667
aF0.99
aI890
aa(lp1519
F0.9025000000000001
aF0.9983333333333333
aI864
aa(lp1520
F0.9225000000000001
aF0.985
aI868
aa(lp1521
F0.9441666666666666
aF0.995
aI868
aa(lp1522
F0.915
aF0.99
aI867
aa(lp1523
F0.945
aF1.0
aI876
aa(lp1524
F0.95
aF1.0
aI868
aa(lp1525
F0.9633333333333334
aF1.0
aI862
aa(lp1526
F0.9525000000000001
aF0.995
aI856
aa(lp1527
F0.9591666666666667
aF0.9983333333333333
aI878
aa(lp1528
F0.9633333333333334
aF1.0
aI848
aa(lp1529
F0.97
aF0.9933333333333333
aI865
aa(lp1530
F0.9574999999999999
aF0.9983333333333333
aI837
aa(lp1531
F0.9658333333333333
aF0.9983333333333333
aI846
aa(lp1532
F0.9758333333333333
aF0.995
aI867
aa(lp1533
F0.9783333333333334
aF1.0
aI866
aa(lp1534
F0.9866666666666667
aF1.0
aI839
aa(lp1535
F0.9691666666666666
aF0.9983333333333333
aI856
aa(lp1536
F0.97
aF1.0
aI847
aa(lp1537
F0.9833333333333333
aF1.0
aI861
aa(lp1538
F0.9716666666666667
aF0.9966666666666667
aI857
aa(lp1539
F0.9875
aF0.9983333333333333
aI859
aa(lp1540
F0.9883333333333333
aF1.0
aI844
aa(lp1541
F0.9833333333333333
aF1.0
aI842
aa(lp1542
F0.97
aF0.9966666666666667
aI855
aa(lp1543
F0.9833333333333334
aF0.9966666666666667
aI855
aa(lp1544
F0.9783333333333334
aF1.0
aI859
aatp1545
a((lp1546
(lp1547
F0.7242857142857142
aF0.99
aI855
aa(lp1548
F0.7196428571428573
aF0.9878571428571429
aI875
aa(lp1549
F0.7453571428571428
aF0.9964285714285714
aI895
aa(lp1550
F0.7414285714285715
aF0.9985714285714286
aI872
aa(lp1551
F0.7857142857142857
aF1.0
aI901
aa(lp1552
F0.8042857142857143
aF1.0
aI886
aa(lp1553
F0.7864285714285715
aF0.9985714285714286
aI885
aa(lp1554
F0.8092857142857144
aF0.9985714285714286
aI900
aa(lp1555
F0.815
aF0.9985714285714286
aI877
aa(lp1556
F0.8492857142857143
aF1.0
aI883
aa(lp1557
F0.8467857142857143
aF0.9935714285714285
aI881
aa(lp1558
F0.8807142857142858
aF0.9928571428571429
aI882
aa(lp1559
F0.9032142857142856
aF0.9964285714285714
aI860
aa(lp1560
F0.8792857142857142
aF0.9957142857142857
aI866
aa(lp1561
F0.9003571428571427
aF0.9907142857142857
aI871
aa(lp1562
F0.915357142857143
aF0.9978571428571429
aI881
aa(lp1563
F0.9075000000000001
aF0.9964285714285714
aI866
aa(lp1564
F0.9082142857142856
aF0.995
aI871
aa(lp1565
F0.939642857142857
aF0.995
aI862
aa(lp1566
F0.9396428571428572
aF0.9978571428571429
aI878
aa(lp1567
F0.9425000000000001
aF0.9978571428571429
aI877
aa(lp1568
F0.9282142857142857
aF0.9964285714285714
aI867
aa(lp1569
F0.9317857142857144
aF0.9978571428571429
aI874
aa(lp1570
F0.9625000000000001
aF0.9978571428571429
aI881
aa(lp1571
F0.9467857142857143
aF0.9992857142857143
aI889
aa(lp1572
F0.9585714285714285
aF1.0
aI872
aa(lp1573
F0.965
aF1.0
aI866
aa(lp1574
F0.9732142857142858
aF0.9978571428571429
aI856
aa(lp1575
F0.9689285714285715
aF0.9992857142857143
aI844
aa(lp1576
F0.9753571428571428
aF0.9992857142857143
aI872
aa(lp1577
F0.9789285714285714
aF0.9992857142857143
aI867
aa(lp1578
F0.9735714285714285
aF1.0
aI858
aa(lp1579
F0.9821428571428571
aF1.0
aI834
aa(lp1580
F0.9907142857142858
aF1.0
aI851
aa(lp1581
F0.9907142857142858
aF1.0
aI877
aa(lp1582
F0.9864285714285714
aF1.0
aI855
aa(lp1583
F0.9914285714285714
aF1.0
aI872
aa(lp1584
F0.9935714285714285
aF1.0
aI872
aa(lp1585
F0.9921428571428571
aF1.0
aI868
aa(lp1586
F0.99
aF1.0
aI867
aa(lp1587
F0.9928571428571429
aF1.0
aI870
aa(lp1588
F0.9907142857142858
aF1.0
aI857
aa(lp1589
F1.0
aF1.0
aI853
aa(lp1590
F0.9960714285714286
aF0.9992857142857143
aI843
aa(lp1591
F0.9885714285714285
aF1.0
aI850
aa(lp1592
F0.9978571428571429
aF1.0
aI873
aa(lp1593
F0.9964285714285714
aF1.0
aI864
aa(lp1594
F0.9960714285714286
aF0.9992857142857143
aI849
aa(lp1595
F0.9921428571428571
aF1.0
aI862
aa(lp1596
F0.9942857142857143
aF1.0
aI859
aa(lp1597
(lp1598
F0.6225
aF0.9883333333333333
aI855
aa(lp1599
F0.5825
aF0.9783333333333333
aI875
aa(lp1600
F0.615
aF0.9966666666666667
aI895
aa(lp1601
F0.6191666666666666
aF0.995
aI872
aa(lp1602
F0.7025000000000001
aF0.995
aI901
aa(lp1603
F0.6733333333333333
aF0.9966666666666667
aI886
aa(lp1604
F0.6683333333333333
aF1.0
aI885
aa(lp1605
F0.7066666666666668
aF0.9933333333333333
aI900
aa(lp1606
F0.7241666666666666
aF0.995
aI877
aa(lp1607
F0.7408333333333333
aF0.9983333333333333
aI883
aa(lp1608
F0.7641666666666667
aF0.985
aI881
aa(lp1609
F0.7883333333333333
aF0.9866666666666667
aI882
aa(lp1610
F0.7958333333333333
aF0.9883333333333333
aI860
aa(lp1611
F0.8058333333333334
aF0.9916666666666667
aI866
aa(lp1612
F0.835
aF0.99
aI871
aa(lp1613
F0.8416666666666666
aF0.9866666666666667
aI881
aa(lp1614
F0.8433333333333333
aF0.9833333333333333
aI866
aa(lp1615
F0.8541666666666667
aF0.995
aI871
aa(lp1616
F0.885
aF0.9866666666666667
aI862
aa(lp1617
F0.8908333333333333
aF0.9983333333333333
aI878
aa(lp1618
F0.9041666666666666
aF0.995
aI877
aa(lp1619
F0.8983333333333333
aF0.99
aI867
aa(lp1620
F0.9075
aF0.9983333333333333
aI874
aa(lp1621
F0.9425
aF0.9883333333333333
aI881
aa(lp1622
F0.9208333333333333
aF0.9983333333333333
aI889
aa(lp1623
F0.9333333333333333
aF0.9966666666666667
aI872
aa(lp1624
F0.9433333333333334
aF1.0
aI866
aa(lp1625
F0.9591666666666667
aF0.9983333333333333
aI856
aa(lp1626
F0.9416666666666667
aF1.0
aI844
aa(lp1627
F0.9516666666666667
aF1.0
aI872
aa(lp1628
F0.9608333333333334
aF0.995
aI867
aa(lp1629
F0.9483333333333334
aF1.0
aI858
aa(lp1630
F0.9683333333333334
aF1.0
aI834
aa(lp1631
F0.9833333333333333
aF1.0
aI851
aa(lp1632
F0.9783333333333334
aF1.0
aI877
aa(lp1633
F0.97
aF1.0
aI855
aa(lp1634
F0.9774999999999999
aF0.9983333333333333
aI872
aa(lp1635
F0.9841666666666666
aF0.9983333333333333
aI872
aa(lp1636
F0.9866666666666667
aF1.0
aI868
aa(lp1637
F0.9933333333333333
aF1.0
aI867
aa(lp1638
F0.9824999999999999
aF0.9983333333333333
aI870
aa(lp1639
F0.9758333333333333
aF0.995
aI857
aa(lp1640
F1.0
aF1.0
aI853
aa(lp1641
F0.9725
aF0.9983333333333333
aI843
aa(lp1642
F0.9883333333333333
aF1.0
aI850
aa(lp1643
F0.9916666666666667
aF1.0
aI873
aa(lp1644
F0.995
aF1.0
aI864
aa(lp1645
F0.9925
aF0.9983333333333333
aI849
aa(lp1646
F0.9816666666666667
aF0.9966666666666667
aI862
aa(lp1647
F0.9916666666666667
aF1.0
aI859
aatp1648
a((lp1649
(lp1650
F0.7071428571428573
aF0.9942857142857143
aI861
aa(lp1651
F0.7217857142857143
aF0.9921428571428571
aI888
aa(lp1652
F0.7539285714285715
aF0.9935714285714285
aI875
aa(lp1653
F0.7667857142857143
aF0.9964285714285714
aI879
aa(lp1654
F0.7778571428571428
aF0.9957142857142857
aI883
aa(lp1655
F0.7985714285714286
aF1.0
aI876
aa(lp1656
F0.7910714285714286
aF0.9992857142857143
aI870
aa(lp1657
F0.8139285714285716
aF0.9978571428571429
aI881
aa(lp1658
F0.8203571428571429
aF0.9992857142857143
aI893
aa(lp1659
F0.8164285714285715
aF0.9985714285714286
aI891
aa(lp1660
F0.8253571428571429
aF0.9992857142857143
aI875
aa(lp1661
F0.8314285714285714
aF0.9985714285714286
aI877
aa(lp1662
F0.8464285714285715
aF0.9928571428571429
aI867
aa(lp1663
F0.8432142857142857
aF0.9964285714285714
aI877
aa(lp1664
F0.8689285714285714
aF0.9992857142857143
aI885
aa(lp1665
F0.8878571428571429
aF0.9942857142857143
aI869
aa(lp1666
F0.8610714285714287
aF0.9978571428571429
aI871
aa(lp1667
F0.8907142857142858
aF0.9957142857142857
aI889
aa(lp1668
F0.8975
aF0.995
aI868
aa(lp1669
F0.8892857142857143
aF0.9971428571428571
aI877
aa(lp1670
F0.8982142857142857
aF0.9971428571428571
aI867
aa(lp1671
F0.9328571428571428
aF0.9971428571428571
aI861
aa(lp1672
F0.9260714285714284
aF0.995
aI866
aa(lp1673
F0.9257142857142857
aF0.9957142857142857
aI877
aa(lp1674
F0.9539285714285715
aF0.9978571428571429
aI876
aa(lp1675
F0.9471428571428571
aF0.9971428571428571
aI853
aa(lp1676
F0.955
aF1.0
aI865
aa(lp1677
F0.9657142857142857
aF0.9985714285714286
aI865
aa(lp1678
F0.9703571428571429
aF0.9992857142857143
aI857
aa(lp1679
F0.9617857142857142
aF0.9978571428571429
aI860
aa(lp1680
F0.9664285714285714
aF0.9985714285714286
aI883
aa(lp1681
F0.98
aF1.0
aI870
aa(lp1682
F0.9832142857142857
aF0.9992857142857143
aI865
aa(lp1683
F0.98
aF1.0
aI871
aa(lp1684
F0.9778571428571428
aF0.9985714285714286
aI863
aa(lp1685
F0.9857142857142858
aF1.0
aI839
aa(lp1686
F0.9867857142857143
aF0.9992857142857143
aI827
aa(lp1687
F0.9803571428571428
aF0.9992857142857143
aI856
aa(lp1688
F0.9821428571428571
aF1.0
aI839
aa(lp1689
F0.9928571428571429
aF0.9985714285714286
aI875
aa(lp1690
F0.985
aF1.0
aI875
aa(lp1691
F0.99
aF1.0
aI851
aa(lp1692
F0.9871428571428571
aF1.0
aI851
aa(lp1693
F0.9935714285714285
aF1.0
aI846
aa(lp1694
F0.9921428571428572
aF0.9985714285714286
aI876
aa(lp1695
F0.9917857142857143
aF0.9978571428571429
aI854
aa(lp1696
F0.9914285714285715
aF0.9985714285714286
aI857
aa(lp1697
F0.9932142857142857
aF0.9992857142857143
aI886
aa(lp1698
F0.9928571428571429
aF1.0
aI869
aa(lp1699
F0.9971428571428571
aF1.0
aI877
aa(lp1700
(lp1701
F0.6158333333333332
aF0.985
aI861
aa(lp1702
F0.5991666666666666
aF0.975
aI888
aa(lp1703
F0.6125
aF0.9816666666666667
aI875
aa(lp1704
F0.6641666666666667
aF0.9916666666666667
aI879
aa(lp1705
F0.6300000000000001
aF0.9866666666666667
aI883
aa(lp1706
F0.6533333333333333
aF0.9966666666666667
aI876
aa(lp1707
F0.6666666666666666
aF1.0
aI870
aa(lp1708
F0.7066666666666667
aF1.0
aI881
aa(lp1709
F0.6891666666666667
aF0.995
aI893
aa(lp1710
F0.7125
aF0.9916666666666667
aI891
aa(lp1711
F0.7308333333333333
aF0.9883333333333333
aI875
aa(lp1712
F0.71
aF0.9966666666666667
aI877
aa(lp1713
F0.7775
aF0.9883333333333333
aI867
aa(lp1714
F0.7833333333333333
aF0.99
aI877
aa(lp1715
F0.7708333333333334
aF0.9916666666666667
aI885
aa(lp1716
F0.7875
aF0.9916666666666667
aI869
aa(lp1717
F0.7849999999999999
aF0.9933333333333333
aI871
aa(lp1718
F0.7983333333333333
aF0.99
aI889
aa(lp1719
F0.7991666666666668
aF0.985
aI868
aa(lp1720
F0.7966666666666666
aF0.99
aI877
aa(lp1721
F0.7975000000000001
aF0.9916666666666667
aI867
aa(lp1722
F0.8325
aF0.985
aI861
aa(lp1723
F0.8516666666666666
aF0.9933333333333333
aI866
aa(lp1724
F0.8608333333333333
aF0.9883333333333333
aI877
aa(lp1725
F0.9075
aF0.9916666666666667
aI876
aa(lp1726
F0.8883333333333334
aF0.9966666666666667
aI853
aa(lp1727
F0.8983333333333332
aF0.9966666666666667
aI865
aa(lp1728
F0.9283333333333332
aF0.9933333333333333
aI865
aa(lp1729
F0.9341666666666667
aF0.9983333333333333
aI857
aa(lp1730
F0.9258333333333333
aF0.995
aI860
aa(lp1731
F0.9391666666666667
aF0.9983333333333333
aI883
aa(lp1732
F0.9425
aF0.9983333333333333
aI870
aa(lp1733
F0.9633333333333334
aF0.9966666666666667
aI865
aa(lp1734
F0.9516666666666667
aF1.0
aI871
aa(lp1735
F0.9550000000000001
aF0.9966666666666667
aI863
aa(lp1736
F0.9675
aF0.995
aI839
aa(lp1737
F0.9741666666666666
aF0.9983333333333333
aI827
aa(lp1738
F0.955
aF1.0
aI856
aa(lp1739
F0.97
aF1.0
aI839
aa(lp1740
F0.9666666666666667
aF1.0
aI875
aa(lp1741
F0.9733333333333334
aF1.0
aI875
aa(lp1742
F0.955
aF1.0
aI851
aa(lp1743
F0.9750000000000001
aF0.9966666666666667
aI851
aa(lp1744
F0.9758333333333333
aF0.9983333333333333
aI846
aa(lp1745
F0.9824999999999999
aF0.9983333333333333
aI876
aa(lp1746
F0.9816666666666667
aF0.9966666666666667
aI854
aa(lp1747
F0.9808333333333332
aF0.9983333333333333
aI857
aa(lp1748
F0.9883333333333333
aF1.0
aI886
aa(lp1749
F0.9866666666666667
aF1.0
aI869
aa(lp1750
F0.9866666666666667
aF1.0
aI877
aatp1751
a((lp1752
(lp1753
F0.7196428571428571
aF0.9935714285714285
aI895
aa(lp1754
F0.7478571428571428
aF0.9828571428571429
aI883
aa(lp1755
F0.7457142857142858
aF0.9942857142857143
aI874
aa(lp1756
F0.7603571428571427
aF0.995
aI872
aa(lp1757
F0.7392857142857143
aF0.9985714285714286
aI882
aa(lp1758
F0.7560714285714287
aF0.9978571428571429
aI872
aa(lp1759
F0.7892857142857143
aF1.0
aI892
aa(lp1760
F0.7849999999999999
aF0.9985714285714286
aI882
aa(lp1761
F0.7942857142857143
aF0.9942857142857143
aI887
aa(lp1762
F0.832857142857143
aF0.9957142857142857
aI883
aa(lp1763
F0.8189285714285715
aF0.9964285714285714
aI871
aa(lp1764
F0.8300000000000001
aF0.9985714285714286
aI884
aa(lp1765
F0.8542857142857143
aF0.9957142857142857
aI886
aa(lp1766
F0.8778571428571429
aF1.0
aI869
aa(lp1767
F0.8710714285714285
aF0.9935714285714285
aI859
aa(lp1768
F0.8767857142857143
aF0.9921428571428571
aI853
aa(lp1769
F0.8875
aF0.9978571428571429
aI879
aa(lp1770
F0.9089285714285713
aF0.9921428571428571
aI873
aa(lp1771
F0.925
aF0.9985714285714286
aI891
aa(lp1772
F0.915
aF0.9971428571428571
aI875
aa(lp1773
F0.9203571428571429
aF0.9957142857142857
aI869
aa(lp1774
F0.9175
aF0.9921428571428571
aI892
aa(lp1775
F0.9196428571428572
aF0.9978571428571429
aI878
aa(lp1776
F0.93
aF1.0
aI871
aa(lp1777
F0.9214285714285715
aF0.9971428571428571
aI876
aa(lp1778
F0.9364285714285714
aF0.9985714285714286
aI871
aa(lp1779
F0.9510714285714286
aF0.995
aI863
aa(lp1780
F0.9485714285714286
aF0.9942857142857143
aI862
aa(lp1781
F0.9467857142857143
aF0.9978571428571429
aI855
aa(lp1782
F0.9546428571428571
aF0.9964285714285714
aI858
aa(lp1783
F0.9607142857142856
aF0.9985714285714286
aI846
aa(lp1784
F0.9746428571428571
aF0.9935714285714285
aI844
aa(lp1785
F0.9735714285714285
aF0.9942857142857143
aI858
aa(lp1786
F0.9710714285714287
aF0.9992857142857143
aI866
aa(lp1787
F0.9671428571428572
aF1.0
aI864
aa(lp1788
F0.9710714285714287
aF0.9992857142857143
aI878
aa(lp1789
F0.9785714285714285
aF1.0
aI867
aa(lp1790
F0.9703571428571429
aF0.9978571428571429
aI887
aa(lp1791
F0.9842857142857143
aF1.0
aI865
aa(lp1792
F0.9882142857142857
aF0.9992857142857143
aI859
aa(lp1793
F0.9917857142857143
aF0.9992857142857143
aI859
aa(lp1794
F0.9907142857142858
aF1.0
aI874
aa(lp1795
F0.9885714285714285
aF1.0
aI872
aa(lp1796
F0.9878571428571429
aF1.0
aI867
aa(lp1797
F0.9871428571428571
aF1.0
aI873
aa(lp1798
F0.9885714285714285
aF1.0
aI869
aa(lp1799
F0.9860714285714286
aF0.9992857142857143
aI879
aa(lp1800
F0.9857142857142858
aF1.0
aI871
aa(lp1801
F0.99
aF1.0
aI843
aa(lp1802
F0.99
aF1.0
aI863
aa(lp1803
(lp1804
F0.5983333333333333
aF0.98
aI895
aa(lp1805
F0.6116666666666667
aF0.96
aI883
aa(lp1806
F0.625
aF0.9933333333333333
aI874
aa(lp1807
F0.6183333333333333
aF0.99
aI872
aa(lp1808
F0.6241666666666665
aF0.995
aI882
aa(lp1809
F0.6491666666666667
aF0.995
aI872
aa(lp1810
F0.6466666666666667
aF0.9966666666666667
aI892
aa(lp1811
F0.6783333333333335
aF0.9933333333333333
aI882
aa(lp1812
F0.7008333333333333
aF0.9883333333333333
aI887
aa(lp1813
F0.6925
aF0.9916666666666667
aI883
aa(lp1814
F0.6975
aF0.995
aI871
aa(lp1815
F0.7141666666666666
aF0.9883333333333333
aI884
aa(lp1816
F0.7641666666666667
aF0.9983333333333333
aI886
aa(lp1817
F0.7916666666666667
aF0.9966666666666667
aI869
aa(lp1818
F0.7825
aF0.995
aI859
aa(lp1819
F0.8225
aF0.9883333333333333
aI853
aa(lp1820
F0.8258333333333333
aF0.9816666666666667
aI879
aa(lp1821
F0.8591666666666666
aF0.9883333333333333
aI873
aa(lp1822
F0.8600000000000001
aF0.9966666666666667
aI891
aa(lp1823
F0.8600000000000001
aF0.9933333333333333
aI875
aa(lp1824
F0.8566666666666667
aF0.9866666666666667
aI869
aa(lp1825
F0.845
aF0.9833333333333333
aI892
aa(lp1826
F0.8574999999999999
aF0.9883333333333333
aI878
aa(lp1827
F0.8825000000000001
aF0.995
aI871
aa(lp1828
F0.8775
aF0.9916666666666667
aI876
aa(lp1829
F0.8783333333333333
aF0.99
aI871
aa(lp1830
F0.9175
aF0.985
aI863
aa(lp1831
F0.9208333333333334
aF0.9916666666666667
aI862
aa(lp1832
F0.89
aF1.0
aI855
aa(lp1833
F0.9091666666666666
aF0.9883333333333333
aI858
aa(lp1834
F0.9291666666666666
aF0.9983333333333333
aI846
aa(lp1835
F0.9366666666666666
aF0.99
aI844
aa(lp1836
F0.9608333333333333
aF0.9916666666666667
aI858
aa(lp1837
F0.9441666666666666
aF0.995
aI866
aa(lp1838
F0.9191666666666667
aF0.9983333333333333
aI864
aa(lp1839
F0.9383333333333334
aF1.0
aI878
aa(lp1840
F0.9441666666666666
aF0.9983333333333333
aI867
aa(lp1841
F0.9375
aF0.9983333333333333
aI887
aa(lp1842
F0.9583333333333334
aF1.0
aI865
aa(lp1843
F0.9716666666666667
aF0.9966666666666667
aI859
aa(lp1844
F0.9783333333333334
aF1.0
aI859
aa(lp1845
F0.9766666666666668
aF0.9966666666666667
aI874
aa(lp1846
F0.9758333333333333
aF0.9983333333333333
aI872
aa(lp1847
F0.9625
aF0.9983333333333333
aI867
aa(lp1848
F0.9758333333333333
aF0.9983333333333333
aI873
aa(lp1849
F0.975
aF1.0
aI869
aa(lp1850
F0.9733333333333334
aF1.0
aI879
aa(lp1851
F0.9758333333333333
aF0.9983333333333333
aI871
aa(lp1852
F0.99
aF1.0
aI843
aa(lp1853
F0.9766666666666666
aF0.9933333333333333
aI863
aatp1854
a((lp1855
(lp1856
F0.6828571428571428
aF1.0
aI860
aa(lp1857
F0.6910714285714286
aF0.9992857142857143
aI881
aa(lp1858
F0.7175
aF0.9992857142857143
aI893
aa(lp1859
F0.7353571428571429
aF0.9992857142857143
aI897
aa(lp1860
F0.7350000000000001
aF0.9985714285714286
aI879
aa(lp1861
F0.7407142857142858
aF1.0
aI886
aa(lp1862
F0.7664285714285715
aF0.9985714285714286
aI895
aa(lp1863
F0.7725000000000001
aF0.9992857142857143
aI881
aa(lp1864
F0.782142857142857
aF0.9985714285714286
aI894
aa(lp1865
F0.7760714285714286
aF0.9992857142857143
aI895
aa(lp1866
F0.79
aF0.9985714285714286
aI884
aa(lp1867
F0.8267857142857142
aF0.9992857142857143
aI891
aa(lp1868
F0.8342857142857143
aF0.9971428571428571
aI870
aa(lp1869
F0.8517857142857143
aF0.9964285714285714
aI879
aa(lp1870
F0.8364285714285715
aF0.9957142857142857
aI873
aa(lp1871
F0.8646428571428572
aF0.9992857142857143
aI877
aa(lp1872
F0.8596428571428572
aF0.9978571428571429
aI872
aa(lp1873
F0.8821428571428571
aF0.9957142857142857
aI878
aa(lp1874
F0.8960714285714286
aF0.9964285714285714
aI855
aa(lp1875
F0.905
aF0.9957142857142857
aI862
aa(lp1876
F0.9007142857142858
aF0.9957142857142857
aI886
aa(lp1877
F0.9257142857142857
aF0.9942857142857143
aI860
aa(lp1878
F0.9257142857142857
aF0.9914285714285714
aI850
aa(lp1879
F0.9307142857142857
aF1.0
aI865
aa(lp1880
F0.9264285714285714
aF0.9985714285714286
aI868
aa(lp1881
F0.9467857142857143
aF0.9978571428571429
aI872
aa(lp1882
F0.937142857142857
aF0.9985714285714286
aI870
aa(lp1883
F0.9450000000000001
aF0.9971428571428571
aI859
aa(lp1884
F0.9485714285714286
aF0.9985714285714286
aI854
aa(lp1885
F0.9471428571428571
aF0.9971428571428571
aI856
aa(lp1886
F0.9557142857142857
aF0.9957142857142857
aI859
aa(lp1887
F0.9460714285714287
aF0.9978571428571429
aI861
aa(lp1888
F0.9571428571428571
aF0.9985714285714286
aI856
aa(lp1889
F0.9750000000000001
aF0.9985714285714286
aI850
aa(lp1890
F0.9682142857142857
aF0.9978571428571429
aI869
aa(lp1891
F0.9692857142857143
aF1.0
aI872
aa(lp1892
F0.9721428571428572
aF1.0
aI871
aa(lp1893
F0.9707142857142856
aF0.9985714285714286
aI862
aa(lp1894
F0.9721428571428572
aF1.0
aI864
aa(lp1895
F0.9792857142857143
aF0.9985714285714286
aI856
aa(lp1896
F0.9810714285714286
aF0.9992857142857143
aI864
aa(lp1897
F0.9753571428571428
aF0.9992857142857143
aI863
aa(lp1898
F0.9728571428571429
aF0.9985714285714286
aI860
aa(lp1899
F0.9792857142857143
aF1.0
aI856
aa(lp1900
F0.9825
aF0.9992857142857143
aI848
aa(lp1901
F0.9803571428571428
aF0.9992857142857143
aI862
aa(lp1902
F0.9807142857142858
aF1.0
aI854
aa(lp1903
F0.9835714285714285
aF1.0
aI854
aa(lp1904
F0.9878571428571429
aF1.0
aI860
aa(lp1905
F0.9632142857142858
aF0.9978571428571429
aI852
aa(lp1906
(lp1907
F0.64
aF1.0
aI860
aa(lp1908
F0.6174999999999999
aF0.9983333333333333
aI881
aa(lp1909
F0.6341666666666667
aF0.9983333333333333
aI893
aa(lp1910
F0.6116666666666668
aF0.9966666666666667
aI897
aa(lp1911
F0.5858333333333333
aF0.9983333333333333
aI879
aa(lp1912
F0.6233333333333333
aF1.0
aI886
aa(lp1913
F0.645
aF1.0
aI895
aa(lp1914
F0.6633333333333333
aF0.9966666666666667
aI881
aa(lp1915
F0.6483333333333334
aF0.9966666666666667
aI894
aa(lp1916
F0.6891666666666667
aF0.9983333333333333
aI895
aa(lp1917
F0.7041666666666667
aF0.9916666666666667
aI884
aa(lp1918
F0.74
aF1.0
aI891
aa(lp1919
F0.7533333333333334
aF0.9966666666666667
aI870
aa(lp1920
F0.735
aF0.99
aI879
aa(lp1921
F0.7525
aF0.9916666666666667
aI873
aa(lp1922
F0.7916666666666667
aF0.9933333333333333
aI877
aa(lp1923
F0.8125
aF0.9983333333333333
aI872
aa(lp1924
F0.8241666666666666
aF0.9916666666666667
aI878
aa(lp1925
F0.815
aF0.9933333333333333
aI855
aa(lp1926
F0.8175
aF0.9916666666666667
aI862
aa(lp1927
F0.8233333333333334
aF0.98
aI886
aa(lp1928
F0.8441666666666666
aF0.9983333333333333
aI860
aa(lp1929
F0.865
aF0.99
aI850
aa(lp1930
F0.8741666666666666
aF0.9983333333333333
aI865
aa(lp1931
F0.8583333333333333
aF1.0
aI868
aa(lp1932
F0.895
aF0.9966666666666667
aI872
aa(lp1933
F0.8958333333333334
aF0.9916666666666667
aI870
aa(lp1934
F0.9125
aF0.9916666666666667
aI859
aa(lp1935
F0.915
aF0.9933333333333333
aI854
aa(lp1936
F0.8999999999999999
aF0.9966666666666667
aI856
aa(lp1937
F0.91
aF0.99
aI859
aa(lp1938
F0.9116666666666666
aF0.9966666666666667
aI861
aa(lp1939
F0.9225000000000001
aF0.995
aI856
aa(lp1940
F0.93
aF0.99
aI850
aa(lp1941
F0.945
aF1.0
aI869
aa(lp1942
F0.94
aF0.9966666666666667
aI872
aa(lp1943
F0.9516666666666667
aF1.0
aI871
aa(lp1944
F0.9591666666666667
aF0.9983333333333333
aI862
aa(lp1945
F0.95
aF1.0
aI864
aa(lp1946
F0.95
aF0.9933333333333333
aI856
aa(lp1947
F0.9583333333333334
aF1.0
aI864
aa(lp1948
F0.9466666666666668
aF0.9966666666666667
aI863
aa(lp1949
F0.95
aF0.9966666666666667
aI860
aa(lp1950
F0.9591666666666667
aF0.995
aI856
aa(lp1951
F0.9625
aF0.9983333333333333
aI848
aa(lp1952
F0.9566666666666667
aF1.0
aI862
aa(lp1953
F0.955
aF1.0
aI854
aa(lp1954
F0.9708333333333332
aF0.995
aI854
aa(lp1955
F0.9883333333333333
aF1.0
aI860
aa(lp1956
F0.965
aF1.0
aI852
aatp1957
a((lp1958
(lp1959
F0.7071428571428572
aF0.9928571428571429
aI862
aa(lp1960
F0.7046428571428571
aF0.995
aI877
aa(lp1961
F0.7150000000000001
aF0.9985714285714286
aI885
aa(lp1962
F0.7357142857142858
aF0.9985714285714286
aI889
aa(lp1963
F0.7735714285714286
aF0.9985714285714286
aI880
aa(lp1964
F0.7946428571428572
aF0.9992857142857143
aI874
aa(lp1965
F0.780357142857143
aF0.9978571428571429
aI889
aa(lp1966
F0.7989285714285714
aF0.9978571428571429
aI876
aa(lp1967
F0.8317857142857142
aF0.9992857142857143
aI888
aa(lp1968
F0.8325
aF0.9935714285714285
aI871
aa(lp1969
F0.8557142857142856
aF0.9957142857142857
aI866
aa(lp1970
F0.8357142857142857
aF0.9971428571428571
aI881
aa(lp1971
F0.8664285714285715
aF0.9957142857142857
aI872
aa(lp1972
F0.8592857142857142
aF0.9985714285714286
aI862
aa(lp1973
F0.8796428571428572
aF0.9992857142857143
aI874
aa(lp1974
F0.8835714285714287
aF0.9957142857142857
aI870
aa(lp1975
F0.8896428571428572
aF0.9992857142857143
aI871
aa(lp1976
F0.9075
aF0.9992857142857143
aI863
aa(lp1977
F0.9114285714285715
aF0.9957142857142857
aI855
aa(lp1978
F0.9267857142857143
aF0.9978571428571429
aI863
aa(lp1979
F0.9139285714285715
aF0.9992857142857143
aI861
aa(lp1980
F0.9339285714285713
aF0.9964285714285714
aI876
aa(lp1981
F0.9292857142857143
aF0.9985714285714286
aI864
aa(lp1982
F0.9607142857142857
aF1.0
aI870
aa(lp1983
F0.9603571428571428
aF0.9992857142857143
aI854
aa(lp1984
F0.9446428571428571
aF0.9978571428571429
aI868
aa(lp1985
F0.9617857142857142
aF0.9978571428571429
aI883
aa(lp1986
F0.9753571428571428
aF0.9992857142857143
aI871
aa(lp1987
F0.9828571428571429
aF0.9985714285714286
aI868
aa(lp1988
F0.9828571428571429
aF1.0
aI860
aa(lp1989
F0.9839285714285715
aF0.9992857142857143
aI864
aa(lp1990
F0.9896428571428572
aF0.9992857142857143
aI852
aa(lp1991
F0.9878571428571429
aF1.0
aI865
aa(lp1992
F0.9882142857142857
aF0.9978571428571429
aI854
aa(lp1993
F0.9857142857142858
aF1.0
aI869
aa(lp1994
F0.9885714285714285
aF1.0
aI862
aa(lp1995
F0.9914285714285714
aF1.0
aI854
aa(lp1996
F0.9985714285714286
aF1.0
aI855
aa(lp1997
F0.9978571428571429
aF1.0
aI860
aa(lp1998
F0.9992857142857143
aF1.0
aI842
aa(lp1999
F0.9964285714285714
aF1.0
aI837
aa(lp2000
F0.9957142857142857
aF1.0
aI860
aa(lp2001
F0.9942857142857143
aF1.0
aI867
aa(lp2002
F0.9978571428571429
aF1.0
aI853
aa(lp2003
F0.9957142857142857
aF1.0
aI862
aa(lp2004
F0.995
aF1.0
aI867
aa(lp2005
F0.9971428571428571
aF1.0
aI858
aa(lp2006
F0.9985714285714286
aF1.0
aI848
aa(lp2007
F0.9964285714285714
aF1.0
aI833
aa(lp2008
F0.995
aF1.0
aI845
aa(lp2009
(lp2010
F0.5933333333333333
aF0.9933333333333333
aI862
aa(lp2011
F0.5608333333333334
aF0.9883333333333333
aI877
aa(lp2012
F0.5691666666666666
aF0.9983333333333333
aI885
aa(lp2013
F0.6316666666666667
aF1.0
aI889
aa(lp2014
F0.6516666666666666
aF0.9933333333333333
aI880
aa(lp2015
F0.6599999999999999
aF0.9933333333333333
aI874
aa(lp2016
F0.6441666666666667
aF0.9983333333333333
aI889
aa(lp2017
F0.6691666666666667
aF0.9983333333333333
aI876
aa(lp2018
F0.6983333333333333
aF0.9933333333333333
aI888
aa(lp2019
F0.7083333333333333
aF0.9933333333333333
aI871
aa(lp2020
F0.7475
aF0.995
aI866
aa(lp2021
F0.7324999999999999
aF0.9883333333333333
aI881
aa(lp2022
F0.7375
aF0.9816666666666667
aI872
aa(lp2023
F0.7549999999999999
aF0.9933333333333333
aI862
aa(lp2024
F0.7825
aF0.995
aI874
aa(lp2025
F0.7908333333333333
aF0.985
aI870
aa(lp2026
F0.8316666666666668
aF0.9966666666666667
aI871
aa(lp2027
F0.8483333333333334
aF0.9933333333333333
aI863
aa(lp2028
F0.8541666666666667
aF0.995
aI855
aa(lp2029
F0.8524999999999999
aF0.9916666666666667
aI863
aa(lp2030
F0.8741666666666668
aF0.995
aI861
aa(lp2031
F0.8941666666666667
aF0.9883333333333333
aI876
aa(lp2032
F0.9025000000000001
aF0.995
aI864
aa(lp2033
F0.9583333333333333
aF0.9933333333333333
aI870
aa(lp2034
F0.9358333333333333
aF0.9983333333333333
aI854
aa(lp2035
F0.9191666666666667
aF0.995
aI868
aa(lp2036
F0.9375
aF0.9916666666666667
aI883
aa(lp2037
F0.9691666666666666
aF0.9983333333333333
aI871
aa(lp2038
F0.9574999999999999
aF0.9983333333333333
aI868
aa(lp2039
F0.9624999999999999
aF0.995
aI860
aa(lp2040
F0.9558333333333333
aF0.995
aI864
aa(lp2041
F0.9691666666666666
aF0.9983333333333333
aI852
aa(lp2042
F0.9608333333333333
aF0.9983333333333333
aI865
aa(lp2043
F0.9791666666666665
aF0.995
aI854
aa(lp2044
F0.9716666666666667
aF1.0
aI869
aa(lp2045
F0.9783333333333334
aF1.0
aI862
aa(lp2046
F0.975
aF1.0
aI854
aa(lp2047
F0.9933333333333333
aF1.0
aI855
aa(lp2048
F0.9883333333333333
aF1.0
aI860
aa(lp2049
F0.9966666666666667
aF1.0
aI842
aa(lp2050
F0.9933333333333333
aF1.0
aI837
aa(lp2051
F0.9933333333333333
aF1.0
aI860
aa(lp2052
F0.99
aF1.0
aI867
aa(lp2053
F0.9833333333333333
aF1.0
aI853
aa(lp2054
F0.99
aF0.9966666666666667
aI862
aa(lp2055
F0.9866666666666667
aF1.0
aI867
aa(lp2056
F0.9933333333333333
aF1.0
aI858
aa(lp2057
F0.9958333333333333
aF0.9983333333333333
aI848
aa(lp2058
F0.9883333333333333
aF1.0
aI833
aa(lp2059
F0.9916666666666667
aF1.0
aI845
aatp2060
a((lp2061
(lp2062
F0.7053571428571428
aF0.9992857142857143
aI865
aa(lp2063
F0.7350000000000001
aF0.9985714285714286
aI887
aa(lp2064
F0.7014285714285714
aF1.0
aI893
aa(lp2065
F0.7314285714285714
aF1.0
aI895
aa(lp2066
F0.7335714285714285
aF0.9985714285714286
aI891
aa(lp2067
F0.7539285714285715
aF0.9978571428571429
aI879
aa(lp2068
F0.7642857142857142
aF1.0
aI878
aa(lp2069
F0.7914285714285715
aF1.0
aI878
aa(lp2070
F0.8078571428571428
aF1.0
aI870
aa(lp2071
F0.8060714285714285
aF0.9992857142857143
aI876
aa(lp2072
F0.8139285714285714
aF0.9992857142857143
aI873
aa(lp2073
F0.8542857142857143
aF1.0
aI889
aa(lp2074
F0.8478571428571429
aF0.9985714285714286
aI884
aa(lp2075
F0.8678571428571429
aF0.9971428571428571
aI861
aa(lp2076
F0.8675000000000002
aF0.9978571428571429
aI876
aa(lp2077
F0.8724999999999999
aF0.9992857142857143
aI881
aa(lp2078
F0.8928571428571428
aF0.9971428571428571
aI884
aa(lp2079
F0.9010714285714286
aF0.9992857142857143
aI879
aa(lp2080
F0.8953571428571429
aF0.9964285714285714
aI881
aa(lp2081
F0.9214285714285715
aF0.9957142857142857
aI871
aa(lp2082
F0.9032142857142857
aF0.9978571428571429
aI874
aa(lp2083
F0.9385714285714286
aF1.0
aI874
aa(lp2084
F0.94
aF0.9985714285714286
aI867
aa(lp2085
F0.9675
aF0.9978571428571429
aI871
aa(lp2086
F0.945
aF1.0
aI854
aa(lp2087
F0.9564285714285714
aF0.9985714285714286
aI843
aa(lp2088
F0.9842857142857142
aF0.9985714285714286
aI860
aa(lp2089
F0.9753571428571428
aF0.9992857142857143
aI879
aa(lp2090
F0.985
aF1.0
aI862
aa(lp2091
F0.9825
aF0.9964285714285714
aI871
aa(lp2092
F0.9842857142857142
aF0.9985714285714286
aI869
aa(lp2093
F0.9814285714285714
aF1.0
aI855
aa(lp2094
F0.9878571428571429
aF1.0
aI844
aa(lp2095
F0.985
aF1.0
aI864
aa(lp2096
F0.9828571428571429
aF1.0
aI878
aa(lp2097
F0.9871428571428571
aF1.0
aI869
aa(lp2098
F0.9885714285714285
aF1.0
aI873
aa(lp2099
F0.9914285714285714
aF1.0
aI846
aa(lp2100
F0.9942857142857143
aF1.0
aI852
aa(lp2101
F0.9960714285714286
aF0.9992857142857143
aI857
aa(lp2102
F0.9892857142857143
aF1.0
aI853
aa(lp2103
F0.9885714285714285
aF1.0
aI857
aa(lp2104
F0.9935714285714285
aF0.9985714285714286
aI860
aa(lp2105
F0.9832142857142857
aF0.9992857142857143
aI865
aa(lp2106
F0.9789285714285714
aF0.9978571428571429
aI873
aa(lp2107
F0.9864285714285714
aF1.0
aI874
aa(lp2108
F0.9875
aF0.9992857142857143
aI875
aa(lp2109
F0.9864285714285714
aF1.0
aI859
aa(lp2110
F0.9907142857142858
aF1.0
aI847
aa(lp2111
F0.9882142857142857
aF0.9978571428571429
aI844
aa(lp2112
(lp2113
F0.5808333333333333
aF0.995
aI865
aa(lp2114
F0.5858333333333333
aF0.9983333333333333
aI887
aa(lp2115
F0.6066666666666667
aF1.0
aI893
aa(lp2116
F0.6366666666666667
aF1.0
aI895
aa(lp2117
F0.6525
aF0.9983333333333333
aI891
aa(lp2118
F0.6358333333333334
aF0.9983333333333333
aI879
aa(lp2119
F0.6466666666666666
aF1.0
aI878
aa(lp2120
F0.665
aF1.0
aI878
aa(lp2121
F0.6699999999999999
aF0.9933333333333333
aI870
aa(lp2122
F0.6966666666666665
aF0.9966666666666667
aI876
aa(lp2123
F0.71
aF0.9966666666666667
aI873
aa(lp2124
F0.7683333333333333
aF1.0
aI889
aa(lp2125
F0.7975000000000001
aF0.995
aI884
aa(lp2126
F0.7825
aF0.995
aI861
aa(lp2127
F0.7916666666666667
aF0.9966666666666667
aI876
aa(lp2128
F0.785
aF1.0
aI881
aa(lp2129
F0.8091666666666666
aF0.995
aI884
aa(lp2130
F0.8208333333333333
aF0.995
aI879
aa(lp2131
F0.7883333333333333
aF0.9966666666666667
aI881
aa(lp2132
F0.8283333333333334
aF0.9866666666666667
aI871
aa(lp2133
F0.8533333333333334
aF0.99
aI874
aa(lp2134
F0.8741666666666666
aF0.9916666666666667
aI874
aa(lp2135
F0.8775000000000001
aF0.9983333333333333
aI867
aa(lp2136
F0.9366666666666666
aF1.0
aI871
aa(lp2137
F0.9058333333333334
aF0.9983333333333333
aI854
aa(lp2138
F0.9216666666666666
aF1.0
aI843
aa(lp2139
F0.9566666666666666
aF0.9933333333333333
aI860
aa(lp2140
F0.9458333333333333
aF0.9983333333333333
aI879
aa(lp2141
F0.9583333333333335
aF0.9966666666666667
aI862
aa(lp2142
F0.9483333333333333
aF0.9933333333333333
aI871
aa(lp2143
F0.97
aF0.99
aI869
aa(lp2144
F0.9625
aF0.9983333333333333
aI855
aa(lp2145
F0.9616666666666667
aF1.0
aI844
aa(lp2146
F0.9666666666666667
aF1.0
aI864
aa(lp2147
F0.9691666666666666
aF0.9983333333333333
aI878
aa(lp2148
F0.975
aF1.0
aI869
aa(lp2149
F0.9783333333333334
aF1.0
aI873
aa(lp2150
F0.97
aF1.0
aI846
aa(lp2151
F0.9816666666666667
aF1.0
aI852
aa(lp2152
F0.9774999999999999
aF0.9916666666666667
aI857
aa(lp2153
F0.9741666666666666
aF0.9983333333333333
aI853
aa(lp2154
F0.9891666666666666
aF0.9983333333333333
aI857
aa(lp2155
F0.975
aF1.0
aI860
aa(lp2156
F0.9574999999999999
aF0.9983333333333333
aI865
aa(lp2157
F0.9708333333333333
aF0.9983333333333333
aI873
aa(lp2158
F0.9666666666666668
aF0.9966666666666667
aI874
aa(lp2159
F0.9675
aF0.9983333333333333
aI875
aa(lp2160
F0.9816666666666667
aF1.0
aI859
aa(lp2161
F0.9833333333333333
aF1.0
aI847
aa(lp2162
F0.9808333333333332
aF0.9983333333333333
aI844
aatp2163
a((lp2164
(lp2165
F0.6910714285714286
aF0.9964285714285714
aI884
aa(lp2166
F0.7132142857142858
aF0.9978571428571429
aI873
aa(lp2167
F0.7210714285714286
aF0.995
aI880
aa(lp2168
F0.7382142857142857
aF0.9978571428571429
aI880
aa(lp2169
F0.7607142857142857
aF0.9985714285714286
aI875
aa(lp2170
F0.7657142857142857
aF1.0
aI897
aa(lp2171
F0.7607142857142857
aF1.0
aI894
aa(lp2172
F0.7771428571428571
aF0.9971428571428571
aI873
aa(lp2173
F0.7914285714285715
aF1.0
aI880
aa(lp2174
F0.8157142857142857
aF1.0
aI874
aa(lp2175
F0.8071428571428572
aF0.9985714285714286
aI874
aa(lp2176
F0.8260714285714286
aF0.9978571428571429
aI894
aa(lp2177
F0.8157142857142857
aF0.9971428571428571
aI875
aa(lp2178
F0.8260714285714286
aF0.9964285714285714
aI873
aa(lp2179
F0.8378571428571429
aF0.9957142857142857
aI880
aa(lp2180
F0.8392857142857142
aF0.9957142857142857
aI868
aa(lp2181
F0.8596428571428572
aF0.9964285714285714
aI880
aa(lp2182
F0.8835714285714286
aF0.9971428571428571
aI884
aa(lp2183
F0.8832142857142857
aF0.9964285714285714
aI897
aa(lp2184
F0.9089285714285713
aF0.9907142857142857
aI891
aa(lp2185
F0.9014285714285715
aF0.9957142857142857
aI876
aa(lp2186
F0.9025000000000001
aF0.995
aI878
aa(lp2187
F0.9132142857142856
aF0.9907142857142857
aI864
aa(lp2188
F0.9425
aF0.9935714285714285
aI858
aa(lp2189
F0.9346428571428571
aF0.9964285714285714
aI875
aa(lp2190
F0.92
aF0.9928571428571429
aI873
aa(lp2191
F0.9425000000000001
aF0.9978571428571429
aI872
aa(lp2192
F0.9417857142857142
aF0.9964285714285714
aI885
aa(lp2193
F0.9110714285714285
aF0.9992857142857143
aI896
aa(lp2194
F0.9432142857142858
aF0.9978571428571429
aI891
aa(lp2195
F0.9550000000000001
aF0.9971428571428571
aI868
aa(lp2196
F0.9621428571428572
aF0.9985714285714286
aI876
aa(lp2197
F0.9578571428571427
aF0.9957142857142857
aI871
aa(lp2198
F0.9589285714285714
aF0.995
aI861
aa(lp2199
F0.9642857142857142
aF0.9971428571428571
aI857
aa(lp2200
F0.9585714285714285
aF1.0
aI876
aa(lp2201
F0.98
aF1.0
aI858
aa(lp2202
F0.9767857142857144
aF0.9978571428571429
aI870
aa(lp2203
F0.9821428571428572
aF0.9985714285714286
aI848
aa(lp2204
F0.9778571428571429
aF1.0
aI871
aa(lp2205
F0.9853571428571429
aF0.9992857142857143
aI860
aa(lp2206
F0.9853571428571429
aF0.9992857142857143
aI863
aa(lp2207
F0.9767857142857143
aF0.9992857142857143
aI855
aa(lp2208
F0.9857142857142858
aF1.0
aI861
aa(lp2209
F0.9871428571428571
aF1.0
aI880
aa(lp2210
F0.9835714285714285
aF1.0
aI875
aa(lp2211
F0.9828571428571429
aF1.0
aI865
aa(lp2212
F0.9864285714285714
aF1.0
aI841
aa(lp2213
F0.9928571428571429
aF1.0
aI866
aa(lp2214
F0.9878571428571429
aF1.0
aI845
aa(lp2215
(lp2216
F0.6166666666666667
aF0.9966666666666667
aI884
aa(lp2217
F0.5908333333333333
aF0.995
aI873
aa(lp2218
F0.6158333333333332
aF0.985
aI880
aa(lp2219
F0.6791666666666666
aF0.9983333333333333
aI880
aa(lp2220
F0.6841666666666667
aF0.9916666666666667
aI875
aa(lp2221
F0.6775
aF0.9983333333333333
aI897
aa(lp2222
F0.6533333333333333
aF1.0
aI894
aa(lp2223
F0.6766666666666667
aF0.9966666666666667
aI873
aa(lp2224
F0.695
aF1.0
aI880
aa(lp2225
F0.6991666666666666
aF0.9983333333333333
aI874
aa(lp2226
F0.7083333333333334
aF1.0
aI874
aa(lp2227
F0.7025
aF0.9983333333333333
aI894
aa(lp2228
F0.6833333333333333
aF0.99
aI875
aa(lp2229
F0.7324999999999999
aF0.9883333333333333
aI873
aa(lp2230
F0.725
aF0.99
aI880
aa(lp2231
F0.7308333333333333
aF0.9916666666666667
aI868
aa(lp2232
F0.7591666666666668
aF0.985
aI880
aa(lp2233
F0.7916666666666667
aF0.9966666666666667
aI884
aa(lp2234
F0.7958333333333334
aF0.985
aI897
aa(lp2235
F0.8258333333333333
aF0.9883333333333333
aI891
aa(lp2236
F0.8141666666666667
aF0.9916666666666667
aI876
aa(lp2237
F0.8458333333333334
aF0.985
aI878
aa(lp2238
F0.8616666666666666
aF0.9833333333333333
aI864
aa(lp2239
F0.8883333333333332
aF0.9866666666666667
aI858
aa(lp2240
F0.8949999999999999
aF0.98
aI875
aa(lp2241
F0.8666666666666667
aF0.9766666666666667
aI873
aa(lp2242
F0.8741666666666666
aF0.9816666666666667
aI872
aa(lp2243
F0.8808333333333334
aF0.995
aI885
aa(lp2244
F0.8416666666666667
aF1.0
aI896
aa(lp2245
F0.9058333333333334
aF0.9983333333333333
aI891
aa(lp2246
F0.9208333333333333
aF0.9983333333333333
aI868
aa(lp2247
F0.9266666666666667
aF0.9966666666666667
aI876
aa(lp2248
F0.9308333333333334
aF0.9916666666666667
aI871
aa(lp2249
F0.9466666666666668
aF0.9933333333333333
aI861
aa(lp2250
F0.935
aF0.9966666666666667
aI857
aa(lp2251
F0.9141666666666666
aF0.995
aI876
aa(lp2252
F0.94
aF0.99
aI858
aa(lp2253
F0.9508333333333333
aF0.9983333333333333
aI870
aa(lp2254
F0.9625
aF0.9983333333333333
aI848
aa(lp2255
F0.9516666666666667
aF0.99
aI871
aa(lp2256
F0.9608333333333333
aF0.9983333333333333
aI860
aa(lp2257
F0.9616666666666667
aF1.0
aI863
aa(lp2258
F0.9475
aF0.9983333333333333
aI855
aa(lp2259
F0.9741666666666666
aF0.995
aI861
aa(lp2260
F0.9658333333333333
aF0.9983333333333333
aI880
aa(lp2261
F0.9683333333333334
aF1.0
aI875
aa(lp2262
F0.9541666666666666
aF0.9983333333333333
aI865
aa(lp2263
F0.9591666666666667
aF0.9983333333333333
aI841
aa(lp2264
F0.9766666666666667
aF1.0
aI866
aa(lp2265
F0.9758333333333333
aF0.9983333333333333
aI845
aatp2266
a((lp2267
(lp2268
F0.7160714285714285
aF0.9978571428571429
aI866
aa(lp2269
F0.6828571428571428
aF0.9971428571428571
aI872
aa(lp2270
F0.7250000000000001
aF0.9985714285714286
aI887
aa(lp2271
F0.7157142857142857
aF1.0
aI892
aa(lp2272
F0.7457142857142857
aF0.9971428571428571
aI883
aa(lp2273
F0.7507142857142857
aF0.9985714285714286
aI898
aa(lp2274
F0.77
aF1.0
aI891
aa(lp2275
F0.7832142857142858
aF0.9992857142857143
aI889
aa(lp2276
F0.7796428571428572
aF0.9964285714285714
aI889
aa(lp2277
F0.8114285714285714
aF0.9985714285714286
aI888
aa(lp2278
F0.81
aF1.0
aI894
aa(lp2279
F0.8285714285714285
aF0.9985714285714286
aI873
aa(lp2280
F0.8646428571428572
aF0.9992857142857143
aI876
aa(lp2281
F0.8500000000000001
aF0.9928571428571429
aI881
aa(lp2282
F0.8500000000000001
aF0.9957142857142857
aI874
aa(lp2283
F0.8317857142857144
aF0.9978571428571429
aI875
aa(lp2284
F0.8717857142857144
aF0.9992857142857143
aI875
aa(lp2285
F0.875
aF0.9957142857142857
aI870
aa(lp2286
F0.8885714285714286
aF0.9971428571428571
aI857
aa(lp2287
F0.9021428571428571
aF0.9928571428571429
aI868
aa(lp2288
F0.8982142857142857
aF0.9964285714285714
aI888
aa(lp2289
F0.9107142857142856
aF0.9957142857142857
aI876
aa(lp2290
F0.9028571428571428
aF0.9985714285714286
aI874
aa(lp2291
F0.9128571428571428
aF0.9971428571428571
aI869
aa(lp2292
F0.9342857142857143
aF1.0
aI862
aa(lp2293
F0.9285714285714286
aF0.9971428571428571
aI878
aa(lp2294
F0.932142857142857
aF0.9971428571428571
aI867
aa(lp2295
F0.9307142857142857
aF0.9971428571428571
aI862
aa(lp2296
F0.96
aF0.9985714285714286
aI885
aa(lp2297
F0.955
aF1.0
aI876
aa(lp2298
F0.9642857142857143
aF1.0
aI862
aa(lp2299
F0.9628571428571429
aF1.0
aI871
aa(lp2300
F0.9678571428571427
aF0.9985714285714286
aI880
aa(lp2301
F0.9592857142857143
aF1.0
aI861
aa(lp2302
F0.9782142857142858
aF0.9992857142857143
aI866
aa(lp2303
F0.975
aF1.0
aI867
aa(lp2304
F0.9742857142857142
aF0.9957142857142857
aI885
aa(lp2305
F0.9739285714285715
aF0.9992857142857143
aI869
aa(lp2306
F0.9714285714285713
aF0.9985714285714286
aI866
aa(lp2307
F0.9742857142857143
aF1.0
aI855
aa(lp2308
F0.9764285714285714
aF1.0
aI880
aa(lp2309
F0.9739285714285715
aF0.9992857142857143
aI855
aa(lp2310
F0.9828571428571429
aF1.0
aI870
aa(lp2311
F0.9864285714285714
aF0.9985714285714286
aI847
aa(lp2312
F0.9792857142857142
aF0.9971428571428571
aI885
aa(lp2313
F0.9792857142857143
aF1.0
aI871
aa(lp2314
F0.9907142857142858
aF1.0
aI854
aa(lp2315
F0.9892857142857143
aF0.9985714285714286
aI860
aa(lp2316
F0.9842857142857143
aF1.0
aI845
aa(lp2317
F0.9850000000000001
aF0.9985714285714286
aI854
aa(lp2318
(lp2319
F0.5983333333333334
aF0.9933333333333333
aI866
aa(lp2320
F0.6241666666666665
aF0.995
aI872
aa(lp2321
F0.6258333333333334
aF0.9983333333333333
aI887
aa(lp2322
F0.6183333333333333
aF1.0
aI892
aa(lp2323
F0.6599999999999999
aF0.9966666666666667
aI883
aa(lp2324
F0.6291666666666667
aF0.9916666666666667
aI898
aa(lp2325
F0.635
aF1.0
aI891
aa(lp2326
F0.6475
aF0.9983333333333333
aI889
aa(lp2327
F0.6866666666666668
aF0.9966666666666667
aI889
aa(lp2328
F0.7041666666666666
aF0.9983333333333333
aI888
aa(lp2329
F0.6958333333333333
aF0.9983333333333333
aI894
aa(lp2330
F0.7333333333333334
aF0.9933333333333333
aI873
aa(lp2331
F0.725
aF1.0
aI876
aa(lp2332
F0.7191666666666666
aF0.9783333333333333
aI881
aa(lp2333
F0.7483333333333333
aF0.98
aI874
aa(lp2334
F0.755
aF0.99
aI875
aa(lp2335
F0.7808333333333333
aF0.9983333333333333
aI875
aa(lp2336
F0.7891666666666667
aF0.9916666666666667
aI870
aa(lp2337
F0.8325
aF0.9983333333333333
aI857
aa(lp2338
F0.8266666666666667
aF0.9866666666666667
aI868
aa(lp2339
F0.8383333333333334
aF0.9933333333333333
aI888
aa(lp2340
F0.8308333333333333
aF0.985
aI876
aa(lp2341
F0.8516666666666666
aF0.9966666666666667
aI874
aa(lp2342
F0.8525
aF0.9983333333333333
aI869
aa(lp2343
F0.845
aF0.9966666666666667
aI862
aa(lp2344
F0.8566666666666667
aF0.9933333333333333
aI878
aa(lp2345
F0.8575
aF0.9983333333333333
aI867
aa(lp2346
F0.8783333333333334
aF0.9866666666666667
aI862
aa(lp2347
F0.9175
aF0.995
aI885
aa(lp2348
F0.9158333333333333
aF0.9983333333333333
aI876
aa(lp2349
F0.9175
aF0.9983333333333333
aI862
aa(lp2350
F0.9216666666666666
aF1.0
aI871
aa(lp2351
F0.935
aF0.9966666666666667
aI880
aa(lp2352
F0.9308333333333334
aF0.9983333333333333
aI861
aa(lp2353
F0.9675
aF0.9983333333333333
aI866
aa(lp2354
F0.9591666666666667
aF0.9983333333333333
aI867
aa(lp2355
F0.96
aF0.99
aI885
aa(lp2356
F0.94
aF0.9966666666666667
aI869
aa(lp2357
F0.9516666666666667
aF0.9933333333333333
aI866
aa(lp2358
F0.9466666666666667
aF1.0
aI855
aa(lp2359
F0.9708333333333333
aF0.9983333333333333
aI880
aa(lp2360
F0.9616666666666667
aF1.0
aI855
aa(lp2361
F0.9691666666666666
aF0.9983333333333333
aI870
aa(lp2362
F0.9675
aF0.9983333333333333
aI847
aa(lp2363
F0.9608333333333333
aF0.9983333333333333
aI885
aa(lp2364
F0.9591666666666667
aF0.9983333333333333
aI871
aa(lp2365
F0.9791666666666666
aF0.9983333333333333
aI854
aa(lp2366
F0.9883333333333333
aF1.0
aI860
aa(lp2367
F0.9833333333333333
aF1.0
aI845
aa(lp2368
F0.9791666666666665
aF0.995
aI854
aatp2369
a((lp2370
(lp2371
F0.7014285714285713
aF0.9957142857142857
aI866
aa(lp2372
F0.7225
aF0.9907142857142857
aI875
aa(lp2373
F0.7328571428571429
aF0.9957142857142857
aI885
aa(lp2374
F0.7250000000000001
aF0.9971428571428571
aI898
aa(lp2375
F0.7257142857142858
aF0.9985714285714286
aI884
aa(lp2376
F0.7653571428571428
aF0.9978571428571429
aI880
aa(lp2377
F0.785
aF1.0
aI877
aa(lp2378
F0.7885714285714286
aF1.0
aI896
aa(lp2379
F0.8371428571428572
aF0.9985714285714286
aI878
aa(lp2380
F0.8371428571428572
aF0.9985714285714286
aI880
aa(lp2381
F0.8660714285714286
aF0.9992857142857143
aI886
aa(lp2382
F0.8607142857142857
aF0.9971428571428571
aI882
aa(lp2383
F0.8885714285714286
aF0.9985714285714286
aI883
aa(lp2384
F0.9071428571428573
aF0.9957142857142857
aI855
aa(lp2385
F0.9110714285714285
aF0.9992857142857143
aI873
aa(lp2386
F0.9289285714285713
aF0.9978571428571429
aI865
aa(lp2387
F0.9178571428571429
aF0.9985714285714286
aI881
aa(lp2388
F0.9317857142857144
aF0.9978571428571429
aI855
aa(lp2389
F0.9567857142857144
aF0.9964285714285714
aI864
aa(lp2390
F0.9478571428571427
aF0.9985714285714286
aI866
aa(lp2391
F0.9485714285714286
aF0.9985714285714286
aI885
aa(lp2392
F0.955
aF1.0
aI869
aa(lp2393
F0.9582142857142858
aF0.9992857142857143
aI869
aa(lp2394
F0.9642857142857142
aF0.9957142857142857
aI852
aa(lp2395
F0.9592857142857143
aF0.9971428571428571
aI858
aa(lp2396
F0.9639285714285715
aF0.9978571428571429
aI846
aa(lp2397
F0.9753571428571429
aF0.9964285714285714
aI843
aa(lp2398
F0.9785714285714285
aF1.0
aI881
aa(lp2399
F0.9853571428571429
aF0.9992857142857143
aI852
aa(lp2400
F0.9785714285714286
aF0.9985714285714286
aI877
aa(lp2401
F0.9721428571428572
aF1.0
aI866
aa(lp2402
F0.9792857142857143
aF0.9985714285714286
aI860
aa(lp2403
F0.9828571428571429
aF1.0
aI862
aa(lp2404
F0.9907142857142858
aF1.0
aI859
aa(lp2405
F0.9917857142857143
aF0.9992857142857143
aI851
aa(lp2406
F0.9917857142857143
aF0.9992857142857143
aI869
aa(lp2407
F0.9860714285714286
aF0.9992857142857143
aI854
aa(lp2408
F0.9871428571428571
aF1.0
aI854
aa(lp2409
F0.9928571428571429
aF1.0
aI849
aa(lp2410
F0.9921428571428571
aF1.0
aI854
aa(lp2411
F0.9957142857142857
aF1.0
aI843
aa(lp2412
F0.9985714285714286
aF1.0
aI841
aa(lp2413
F0.9964285714285714
aF1.0
aI850
aa(lp2414
F0.9957142857142857
aF1.0
aI864
aa(lp2415
F1.0
aF1.0
aI856
aa(lp2416
F0.9971428571428571
aF1.0
aI851
aa(lp2417
F0.9964285714285714
aF1.0
aI854
aa(lp2418
F0.9935714285714285
aF1.0
aI847
aa(lp2419
F0.9971428571428571
aF1.0
aI843
aa(lp2420
F0.9935714285714285
aF0.9971428571428571
aI866
aa(lp2421
(lp2422
F0.6141666666666667
aF0.9783333333333333
aI866
aa(lp2423
F0.6191666666666666
aF0.9916666666666667
aI875
aa(lp2424
F0.6008333333333333
aF0.995
aI885
aa(lp2425
F0.6341666666666667
aF0.9983333333333333
aI898
aa(lp2426
F0.6266666666666667
aF0.9966666666666667
aI884
aa(lp2427
F0.6533333333333333
aF1.0
aI880
aa(lp2428
F0.6833333333333333
aF0.9966666666666667
aI877
aa(lp2429
F0.725
aF1.0
aI896
aa(lp2430
F0.7324999999999999
aF0.9983333333333333
aI878
aa(lp2431
F0.7375
aF0.9983333333333333
aI880
aa(lp2432
F0.7483333333333333
aF0.9966666666666667
aI886
aa(lp2433
F0.7591666666666667
aF0.9883333333333333
aI882
aa(lp2434
F0.7908333333333333
aF0.9983333333333333
aI883
aa(lp2435
F0.8425
aF0.995
aI855
aa(lp2436
F0.845
aF0.9966666666666667
aI873
aa(lp2437
F0.8699999999999999
aF0.9933333333333333
aI865
aa(lp2438
F0.8633333333333333
aF1.0
aI881
aa(lp2439
F0.8791666666666667
aF0.9916666666666667
aI855
aa(lp2440
F0.9141666666666666
aF0.995
aI864
aa(lp2441
F0.8808333333333334
aF0.995
aI866
aa(lp2442
F0.9066666666666667
aF0.9966666666666667
aI885
aa(lp2443
F0.9141666666666667
aF0.9916666666666667
aI869
aa(lp2444
F0.94
aF0.9966666666666667
aI869
aa(lp2445
F0.9550000000000001
aF0.9966666666666667
aI852
aa(lp2446
F0.9466666666666667
aF0.99
aI858
aa(lp2447
F0.9458333333333333
aF0.9983333333333333
aI846
aa(lp2448
F0.9525
aF0.9916666666666667
aI843
aa(lp2449
F0.9491666666666666
aF0.9983333333333333
aI881
aa(lp2450
F0.9725
aF0.9983333333333333
aI852
aa(lp2451
F0.9616666666666667
aF1.0
aI877
aa(lp2452
F0.9466666666666667
aF1.0
aI866
aa(lp2453
F0.9608333333333333
aF0.9983333333333333
aI860
aa(lp2454
F0.9716666666666667
aF1.0
aI862
aa(lp2455
F0.99
aF1.0
aI859
aa(lp2456
F0.9891666666666666
aF0.9983333333333333
aI851
aa(lp2457
F0.9858333333333333
aF0.9983333333333333
aI869
aa(lp2458
F0.9758333333333333
aF0.9983333333333333
aI854
aa(lp2459
F0.9833333333333333
aF1.0
aI854
aa(lp2460
F0.98
aF1.0
aI849
aa(lp2461
F0.9883333333333333
aF1.0
aI854
aa(lp2462
F1.0
aF1.0
aI843
aa(lp2463
F0.9983333333333333
aF1.0
aI841
aa(lp2464
F0.9933333333333333
aF1.0
aI850
aa(lp2465
F0.995
aF1.0
aI864
aa(lp2466
F0.9966666666666667
aF1.0
aI856
aa(lp2467
F0.99
aF1.0
aI851
aa(lp2468
F0.9916666666666667
aF1.0
aI854
aa(lp2469
F0.9933333333333334
aF0.9966666666666667
aI847
aa(lp2470
F0.995
aF1.0
aI843
aa(lp2471
F0.9916666666666667
aF1.0
aI866
aatp2472
a((lp2473
(lp2474
F0.7160714285714286
aF0.9935714285714285
aI885
aa(lp2475
F0.7403571428571429
aF0.995
aI885
aa(lp2476
F0.7407142857142857
aF0.9985714285714286
aI880
aa(lp2477
F0.7328571428571429
aF0.9971428571428571
aI889
aa(lp2478
F0.7478571428571429
aF1.0
aI891
aa(lp2479
F0.7635714285714286
aF0.9971428571428571
aI894
aa(lp2480
F0.7957142857142858
aF0.9957142857142857
aI885
aa(lp2481
F0.7842857142857143
aF0.9985714285714286
aI879
aa(lp2482
F0.7775
aF0.9992857142857143
aI892
aa(lp2483
F0.8057142857142856
aF0.9985714285714286
aI876
aa(lp2484
F0.8192857142857143
aF1.0
aI878
aa(lp2485
F0.830357142857143
aF0.9978571428571429
aI891
aa(lp2486
F0.8182142857142858
aF0.9935714285714285
aI877
aa(lp2487
F0.8285714285714285
aF0.9957142857142857
aI889
aa(lp2488
F0.8471428571428572
aF0.9985714285714286
aI893
aa(lp2489
F0.844642857142857
aF0.995
aI860
aa(lp2490
F0.8621428571428571
aF0.9985714285714286
aI878
aa(lp2491
F0.8832142857142857
aF0.9921428571428571
aI875
aa(lp2492
F0.8860714285714286
aF0.9978571428571429
aI876
aa(lp2493
F0.9089285714285715
aF0.995
aI862
aa(lp2494
F0.9078571428571429
aF0.9914285714285714
aI872
aa(lp2495
F0.9003571428571429
aF0.9964285714285714
aI873
aa(lp2496
F0.9085714285714285
aF0.9971428571428571
aI858
aa(lp2497
F0.9310714285714285
aF0.9964285714285714
aI863
aa(lp2498
F0.9196428571428572
aF0.9935714285714285
aI854
aa(lp2499
F0.9539285714285715
aF0.9992857142857143
aI875
aa(lp2500
F0.9632142857142858
aF0.9992857142857143
aI873
aa(lp2501
F0.9453571428571429
aF0.9992857142857143
aI865
aa(lp2502
F0.9582142857142858
aF0.9992857142857143
aI872
aa(lp2503
F0.9703571428571429
aF0.9992857142857143
aI853
aa(lp2504
F0.9746428571428573
aF0.9992857142857143
aI864
aa(lp2505
F0.9764285714285714
aF0.9985714285714286
aI859
aa(lp2506
F0.9810714285714286
aF0.9992857142857143
aI876
aa(lp2507
F0.9896428571428572
aF0.9992857142857143
aI861
aa(lp2508
F0.9875
aF0.9992857142857143
aI871
aa(lp2509
F0.98
aF1.0
aI848
aa(lp2510
F0.9853571428571429
aF0.9992857142857143
aI856
aa(lp2511
F0.98
aF1.0
aI872
aa(lp2512
F0.98
aF1.0
aI861
aa(lp2513
F0.9864285714285714
aF1.0
aI864
aa(lp2514
F0.9892857142857143
aF1.0
aI849
aa(lp2515
F0.9932142857142857
aF0.9992857142857143
aI849
aa(lp2516
F0.9892857142857143
aF1.0
aI844
aa(lp2517
F0.9942857142857143
aF1.0
aI864
aa(lp2518
F0.9853571428571429
aF0.9992857142857143
aI849
aa(lp2519
F0.9807142857142858
aF1.0
aI881
aa(lp2520
F0.9925
aF0.9992857142857143
aI886
aa(lp2521
F0.9939285714285715
aF0.9992857142857143
aI880
aa(lp2522
F0.985
aF1.0
aI862
aa(lp2523
F0.9885714285714285
aF1.0
aI873
aa(lp2524
(lp2525
F0.5516666666666667
aF0.9733333333333334
aI885
aa(lp2526
F0.5958333333333333
aF0.9716666666666667
aI885
aa(lp2527
F0.6225
aF0.9916666666666667
aI880
aa(lp2528
F0.6366666666666667
aF0.9933333333333333
aI889
aa(lp2529
F0.6658333333333333
aF0.995
aI891
aa(lp2530
F0.6508333333333334
aF0.9916666666666667
aI894
aa(lp2531
F0.6708333333333334
aF0.9916666666666667
aI885
aa(lp2532
F0.6966666666666667
aF1.0
aI879
aa(lp2533
F0.6916666666666667
aF1.0
aI892
aa(lp2534
F0.7308333333333334
aF0.995
aI876
aa(lp2535
F0.7125
aF0.9983333333333333
aI878
aa(lp2536
F0.7275
aF0.995
aI891
aa(lp2537
F0.7483333333333334
aF0.99
aI877
aa(lp2538
F0.7658333333333334
aF0.9916666666666667
aI889
aa(lp2539
F0.7575
aF0.9983333333333333
aI893
aa(lp2540
F0.7583333333333333
aF0.99
aI860
aa(lp2541
F0.7833333333333333
aF1.0
aI878
aa(lp2542
F0.8158333333333332
aF0.975
aI875
aa(lp2543
F0.7866666666666666
aF0.9966666666666667
aI876
aa(lp2544
F0.8358333333333333
aF0.9816666666666667
aI862
aa(lp2545
F0.8525
aF0.9816666666666667
aI872
aa(lp2546
F0.8400000000000001
aF0.9966666666666667
aI873
aa(lp2547
F0.845
aF1.0
aI858
aa(lp2548
F0.9075
aF0.9816666666666667
aI863
aa(lp2549
F0.8883333333333332
aF0.9833333333333333
aI854
aa(lp2550
F0.9166666666666667
aF0.9966666666666667
aI875
aa(lp2551
F0.9208333333333333
aF0.9983333333333333
aI873
aa(lp2552
F0.9416666666666667
aF0.9966666666666667
aI865
aa(lp2553
F0.9433333333333334
aF0.9966666666666667
aI872
aa(lp2554
F0.9491666666666667
aF0.995
aI853
aa(lp2555
F0.9716666666666667
aF1.0
aI864
aa(lp2556
F0.9533333333333334
aF0.9966666666666667
aI859
aa(lp2557
F0.9666666666666667
aF1.0
aI876
aa(lp2558
F0.9616666666666667
aF1.0
aI861
aa(lp2559
F0.9758333333333333
aF0.9983333333333333
aI871
aa(lp2560
F0.965
aF1.0
aI848
aa(lp2561
F0.9658333333333333
aF0.9983333333333333
aI856
aa(lp2562
F0.9766666666666667
aF1.0
aI872
aa(lp2563
F0.9716666666666667
aF0.9966666666666667
aI861
aa(lp2564
F0.9683333333333334
aF1.0
aI864
aa(lp2565
F0.99
aF1.0
aI849
aa(lp2566
F0.985
aF1.0
aI849
aa(lp2567
F0.9824999999999999
aF0.9983333333333333
aI844
aa(lp2568
F0.9916666666666667
aF1.0
aI864
aa(lp2569
F0.9833333333333333
aF1.0
aI849
aa(lp2570
F0.975
aF1.0
aI881
aa(lp2571
F0.975
aF1.0
aI886
aa(lp2572
F0.98
aF0.9966666666666667
aI880
aa(lp2573
F0.9683333333333334
aF1.0
aI862
aa(lp2574
F0.9733333333333334
aF1.0
aI873
aatp2575
a((lp2576
(lp2577
F0.7092857142857143
aF0.9985714285714286
aI851
aa(lp2578
F0.7457142857142858
aF0.9985714285714286
aI894
aa(lp2579
F0.7592857142857143
aF0.9957142857142857
aI875
aa(lp2580
F0.7528571428571429
aF1.0
aI880
aa(lp2581
F0.7696428571428572
aF0.9992857142857143
aI877
aa(lp2582
F0.7899999999999999
aF0.9971428571428571
aI875
aa(lp2583
F0.8085714285714285
aF0.9957142857142857
aI880
aa(lp2584
F0.7875
aF0.9992857142857143
aI883
aa(lp2585
F0.8142857142857143
aF0.9971428571428571
aI904
aa(lp2586
F0.8392857142857142
aF0.9957142857142857
aI899
aa(lp2587
F0.8578571428571429
aF0.9971428571428571
aI873
aa(lp2588
F0.8542857142857143
aF1.0
aI887
aa(lp2589
F0.8842857142857143
aF0.9985714285714286
aI877
aa(lp2590
F0.8921428571428571
aF1.0
aI864
aa(lp2591
F0.8892857142857142
aF0.9942857142857143
aI864
aa(lp2592
F0.8957142857142857
aF0.9985714285714286
aI878
aa(lp2593
F0.9042857142857141
aF0.9957142857142857
aI869
aa(lp2594
F0.905357142857143
aF0.9978571428571429
aI870
aa(lp2595
F0.9414285714285714
aF0.9971428571428571
aI870
aa(lp2596
F0.9439285714285715
aF0.9978571428571429
aI862
aa(lp2597
F0.9410714285714286
aF0.9978571428571429
aI874
aa(lp2598
F0.9471428571428571
aF0.9942857142857143
aI867
aa(lp2599
F0.96
aF1.0
aI870
aa(lp2600
F0.9510714285714286
aF0.9992857142857143
aI849
aa(lp2601
F0.9564285714285714
aF0.9971428571428571
aI852
aa(lp2602
F0.9639285714285715
aF0.9978571428571429
aI858
aa(lp2603
F0.9682142857142857
aF0.9992857142857143
aI857
aa(lp2604
F0.9689285714285715
aF0.9992857142857143
aI867
aa(lp2605
F0.9725
aF0.9992857142857143
aI864
aa(lp2606
F0.9757142857142858
aF1.0
aI867
aa(lp2607
F0.9667857142857144
aF0.9978571428571429
aI844
aa(lp2608
F0.9796428571428571
aF0.9992857142857143
aI865
aa(lp2609
F0.9792857142857143
aF0.9985714285714286
aI872
aa(lp2610
F0.9814285714285714
aF1.0
aI878
aa(lp2611
F0.9842857142857143
aF1.0
aI851
aa(lp2612
F0.9682142857142857
aF0.9978571428571429
aI865
aa(lp2613
F0.9739285714285715
aF0.9978571428571429
aI850
aa(lp2614
F0.9825
aF0.9992857142857143
aI848
aa(lp2615
F0.98
aF0.9971428571428571
aI845
aa(lp2616
F0.9835714285714285
aF1.0
aI866
aa(lp2617
F0.9735714285714285
aF1.0
aI871
aa(lp2618
F0.9917857142857143
aF0.9992857142857143
aI864
aa(lp2619
F0.9921428571428571
aF1.0
aI855
aa(lp2620
F0.9921428571428571
aF1.0
aI876
aa(lp2621
F0.99
aF1.0
aI875
aa(lp2622
F0.9910714285714286
aF0.9992857142857143
aI857
aa(lp2623
F0.9907142857142857
aF0.9985714285714286
aI864
aa(lp2624
F0.9885714285714285
aF1.0
aI872
aa(lp2625
F0.9928571428571429
aF1.0
aI853
aa(lp2626
F0.9942857142857143
aF1.0
aI878
aa(lp2627
(lp2628
F0.6366666666666667
aF0.9966666666666667
aI851
aa(lp2629
F0.6458333333333333
aF0.9983333333333333
aI894
aa(lp2630
F0.65
aF1.0
aI875
aa(lp2631
F0.6641666666666667
aF0.9983333333333333
aI880
aa(lp2632
F0.6391666666666667
aF0.995
aI877
aa(lp2633
F0.6483333333333334
aF0.9933333333333333
aI875
aa(lp2634
F0.7
aF1.0
aI880
aa(lp2635
F0.71
aF1.0
aI883
aa(lp2636
F0.7066666666666668
aF0.9933333333333333
aI904
aa(lp2637
F0.7433333333333334
aF0.9933333333333333
aI899
aa(lp2638
F0.7991666666666667
aF0.9916666666666667
aI873
aa(lp2639
F0.8
aF0.9966666666666667
aI887
aa(lp2640
F0.8183333333333334
aF0.9933333333333333
aI877
aa(lp2641
F0.8283333333333334
aF0.9966666666666667
aI864
aa(lp2642
F0.8300000000000001
aF0.9966666666666667
aI864
aa(lp2643
F0.8400000000000001
aF0.9966666666666667
aI878
aa(lp2644
F0.8600000000000001
aF0.9933333333333333
aI869
aa(lp2645
F0.8683333333333333
aF1.0
aI870
aa(lp2646
F0.8916666666666666
aF0.9966666666666667
aI870
aa(lp2647
F0.8925
aF0.9983333333333333
aI862
aa(lp2648
F0.905
aF0.9966666666666667
aI874
aa(lp2649
F0.925
aF0.9866666666666667
aI867
aa(lp2650
F0.9408333333333333
aF0.9983333333333333
aI870
aa(lp2651
F0.9375
aF0.9983333333333333
aI849
aa(lp2652
F0.9216666666666666
aF0.9966666666666667
aI852
aa(lp2653
F0.9341666666666666
aF0.9883333333333333
aI858
aa(lp2654
F0.9316666666666666
aF1.0
aI857
aa(lp2655
F0.9433333333333334
aF0.9966666666666667
aI867
aa(lp2656
F0.9366666666666668
aF0.9966666666666667
aI864
aa(lp2657
F0.9416666666666667
aF1.0
aI867
aa(lp2658
F0.9316666666666666
aF1.0
aI844
aa(lp2659
F0.9641666666666667
aF0.9983333333333333
aI865
aa(lp2660
F0.9725
aF0.9983333333333333
aI872
aa(lp2661
F0.9675
aF0.9983333333333333
aI878
aa(lp2662
F0.9683333333333334
aF1.0
aI851
aa(lp2663
F0.9425
aF0.9983333333333333
aI865
aa(lp2664
F0.9566666666666668
aF0.9966666666666667
aI850
aa(lp2665
F0.9574999999999999
aF0.9983333333333333
aI848
aa(lp2666
F0.9575
aF0.995
aI845
aa(lp2667
F0.9616666666666667
aF1.0
aI866
aa(lp2668
F0.9583333333333334
aF1.0
aI871
aa(lp2669
F0.9633333333333334
aF1.0
aI864
aa(lp2670
F0.9774999999999999
aF0.9983333333333333
aI855
aa(lp2671
F0.9866666666666667
aF1.0
aI876
aa(lp2672
F0.9633333333333334
aF0.9966666666666667
aI875
aa(lp2673
F0.975
aF1.0
aI857
aa(lp2674
F0.9675
aF0.9983333333333333
aI864
aa(lp2675
F0.9741666666666666
aF0.9983333333333333
aI872
aa(lp2676
F0.9816666666666667
aF1.0
aI853
aa(lp2677
F0.9833333333333333
aF1.0
aI878
aatp2678
a((lp2679
(lp2680
F0.72
aF0.9971428571428571
aI868
aa(lp2681
F0.7307142857142856
aF0.9985714285714286
aI885
aa(lp2682
F0.7360714285714285
aF0.9992857142857143
aI882
aa(lp2683
F0.7389285714285715
aF0.9992857142857143
aI890
aa(lp2684
F0.7228571428571429
aF0.9985714285714286
aI890
aa(lp2685
F0.7703571428571429
aF0.9992857142857143
aI896
aa(lp2686
F0.765
aF1.0
aI898
aa(lp2687
F0.7703571428571429
aF0.9992857142857143
aI900
aa(lp2688
F0.7992857142857143
aF1.0
aI895
aa(lp2689
F0.7864285714285715
aF0.9971428571428571
aI887
aa(lp2690
F0.8075000000000001
aF0.9992857142857143
aI874
aa(lp2691
F0.8196428571428571
aF0.9992857142857143
aI884
aa(lp2692
F0.8067857142857143
aF0.9992857142857143
aI886
aa(lp2693
F0.8267857142857143
aF0.9964285714285714
aI861
aa(lp2694
F0.8460714285714286
aF0.9992857142857143
aI871
aa(lp2695
F0.8342857142857143
aF0.9971428571428571
aI881
aa(lp2696
F0.8571428571428572
aF0.9985714285714286
aI893
aa(lp2697
F0.8803571428571428
aF0.9978571428571429
aI882
aa(lp2698
F0.8910714285714285
aF0.9964285714285714
aI877
aa(lp2699
F0.8992857142857142
aF0.9985714285714286
aI875
aa(lp2700
F0.8842857142857143
aF0.9985714285714286
aI876
aa(lp2701
F0.8867857142857143
aF0.9964285714285714
aI883
aa(lp2702
F0.8982142857142857
aF0.9964285714285714
aI857
aa(lp2703
F0.9010714285714286
aF0.9992857142857143
aI861
aa(lp2704
F0.9275
aF0.9964285714285714
aI890
aa(lp2705
F0.9325000000000001
aF0.9992857142857143
aI868
aa(lp2706
F0.9485714285714286
aF0.9985714285714286
aI854
aa(lp2707
F0.9510714285714286
aF0.9964285714285714
aI873
aa(lp2708
F0.9446428571428571
aF0.9978571428571429
aI868
aa(lp2709
F0.945
aF1.0
aI879
aa(lp2710
F0.9507142857142857
aF0.9971428571428571
aI864
aa(lp2711
F0.9582142857142858
aF0.9992857142857143
aI854
aa(lp2712
F0.969642857142857
aF0.9978571428571429
aI875
aa(lp2713
F0.9703571428571429
aF0.9978571428571429
aI880
aa(lp2714
F0.9646428571428571
aF0.9992857142857143
aI872
aa(lp2715
F0.9760714285714285
aF0.9978571428571429
aI857
aa(lp2716
F0.9828571428571429
aF1.0
aI849
aa(lp2717
F0.97
aF1.0
aI847
aa(lp2718
F0.9685714285714285
aF1.0
aI867
aa(lp2719
F0.9721428571428572
aF1.0
aI868
aa(lp2720
F0.9764285714285714
aF1.0
aI870
aa(lp2721
F0.9842857142857143
aF1.0
aI866
aa(lp2722
F0.9814285714285714
aF1.0
aI854
aa(lp2723
F0.9928571428571429
aF1.0
aI851
aa(lp2724
F0.9914285714285715
aF0.9985714285714286
aI849
aa(lp2725
F0.9892857142857143
aF1.0
aI861
aa(lp2726
F0.9864285714285714
aF1.0
aI873
aa(lp2727
F0.9867857142857144
aF0.9978571428571429
aI878
aa(lp2728
F0.9896428571428572
aF0.9992857142857143
aI860
aa(lp2729
F0.9846428571428572
aF0.9992857142857143
aI868
aa(lp2730
(lp2731
F0.5416666666666666
aF0.99
aI868
aa(lp2732
F0.6308333333333334
aF0.9916666666666667
aI885
aa(lp2733
F0.6200000000000001
aF0.9933333333333333
aI882
aa(lp2734
F0.61
aF1.0
aI890
aa(lp2735
F0.6141666666666666
aF0.9983333333333333
aI890
aa(lp2736
F0.6116666666666667
aF1.0
aI896
aa(lp2737
F0.6058333333333333
aF0.9983333333333333
aI898
aa(lp2738
F0.6625
aF0.9983333333333333
aI900
aa(lp2739
F0.6491666666666667
aF0.9983333333333333
aI895
aa(lp2740
F0.7025
aF0.9983333333333333
aI887
aa(lp2741
F0.6758333333333333
aF0.9983333333333333
aI874
aa(lp2742
F0.6916666666666667
aF0.9966666666666667
aI884
aa(lp2743
F0.7116666666666667
aF0.9966666666666667
aI886
aa(lp2744
F0.7325
aF0.9916666666666667
aI861
aa(lp2745
F0.7233333333333334
aF1.0
aI871
aa(lp2746
F0.7166666666666666
aF0.9966666666666667
aI881
aa(lp2747
F0.74
aF0.9966666666666667
aI893
aa(lp2748
F0.7925000000000001
aF0.9983333333333333
aI882
aa(lp2749
F0.8266666666666667
aF0.9866666666666667
aI877
aa(lp2750
F0.8274999999999999
aF0.9883333333333333
aI875
aa(lp2751
F0.8233333333333333
aF0.9966666666666667
aI876
aa(lp2752
F0.815
aF1.0
aI883
aa(lp2753
F0.8533333333333333
aF0.9933333333333333
aI857
aa(lp2754
F0.8641666666666667
aF0.9916666666666667
aI861
aa(lp2755
F0.8983333333333332
aF0.9966666666666667
aI890
aa(lp2756
F0.8891666666666668
aF0.9916666666666667
aI868
aa(lp2757
F0.9133333333333333
aF0.9966666666666667
aI854
aa(lp2758
F0.9066666666666667
aF0.9966666666666667
aI873
aa(lp2759
F0.9041666666666666
aF0.995
aI868
aa(lp2760
F0.9075
aF0.9983333333333333
aI879
aa(lp2761
F0.9200000000000002
aF0.9966666666666667
aI864
aa(lp2762
F0.9233333333333333
aF0.9933333333333333
aI854
aa(lp2763
F0.9183333333333334
aF0.9933333333333333
aI875
aa(lp2764
F0.9366666666666665
aF0.9933333333333333
aI880
aa(lp2765
F0.9225000000000001
aF0.9916666666666667
aI872
aa(lp2766
F0.9433333333333334
aF0.9966666666666667
aI857
aa(lp2767
F0.9566666666666667
aF1.0
aI849
aa(lp2768
F0.93
aF1.0
aI847
aa(lp2769
F0.95
aF1.0
aI867
aa(lp2770
F0.945
aF1.0
aI868
aa(lp2771
F0.9491666666666666
aF0.9983333333333333
aI870
aa(lp2772
F0.965
aF1.0
aI866
aa(lp2773
F0.9616666666666667
aF0.9966666666666667
aI854
aa(lp2774
F0.9666666666666667
aF1.0
aI851
aa(lp2775
F0.97
aF0.9933333333333333
aI849
aa(lp2776
F0.9683333333333334
aF1.0
aI861
aa(lp2777
F0.9666666666666667
aF1.0
aI873
aa(lp2778
F0.9608333333333334
aF0.995
aI878
aa(lp2779
F0.9708333333333332
aF0.995
aI860
aa(lp2780
F0.965
aF1.0
aI868
aatp2781
a((lp2782
(lp2783
F0.6942857142857142
aF0.9985714285714286
aI863
aa(lp2784
F0.7135714285714285
aF0.9914285714285714
aI878
aa(lp2785
F0.7417857142857143
aF0.9978571428571429
aI878
aa(lp2786
F0.7471428571428571
aF1.0
aI905
aa(lp2787
F0.7735714285714286
aF1.0
aI894
aa(lp2788
F0.77
aF1.0
aI877
aa(lp2789
F0.7939285714285713
aF0.9978571428571429
aI885
aa(lp2790
F0.8117857142857142
aF0.9992857142857143
aI891
aa(lp2791
F0.7964285714285715
aF0.9971428571428571
aI852
aa(lp2792
F0.855
aF1.0
aI885
aa(lp2793
F0.8382142857142858
aF0.9978571428571429
aI867
aa(lp2794
F0.8421428571428572
aF0.9971428571428571
aI872
aa(lp2795
F0.8542857142857142
aF0.9971428571428571
aI865
aa(lp2796
F0.8653571428571428
aF0.9992857142857143
aI860
aa(lp2797
F0.8625
aF0.9964285714285714
aI861
aa(lp2798
F0.8742857142857143
aF0.9985714285714286
aI873
aa(lp2799
F0.8967857142857143
aF0.995
aI861
aa(lp2800
F0.9139285714285714
aF0.9978571428571429
aI876
aa(lp2801
F0.9067857142857143
aF0.9964285714285714
aI876
aa(lp2802
F0.9314285714285713
aF0.9957142857142857
aI866
aa(lp2803
F0.9417857142857142
aF0.9964285714285714
aI890
aa(lp2804
F0.9382142857142857
aF0.9978571428571429
aI861
aa(lp2805
F0.9385714285714286
aF0.9985714285714286
aI843
aa(lp2806
F0.9532142857142857
aF0.9964285714285714
aI883
aa(lp2807
F0.9535714285714286
aF0.9935714285714285
aI881
aa(lp2808
F0.9678571428571427
aF0.9985714285714286
aI848
aa(lp2809
F0.9349999999999999
aF0.9971428571428571
aI846
aa(lp2810
F0.9550000000000001
aF0.9971428571428571
aI857
aa(lp2811
F0.9696428571428571
aF0.9992857142857143
aI871
aa(lp2812
F0.9682142857142857
aF0.9992857142857143
aI850
aa(lp2813
F0.9553571428571429
aF0.9992857142857143
aI871
aa(lp2814
F0.9625
aF0.9992857142857143
aI868
aa(lp2815
F0.9785714285714285
aF1.0
aI877
aa(lp2816
F0.9728571428571429
aF1.0
aI861
aa(lp2817
F0.9810714285714286
aF0.9992857142857143
aI848
aa(lp2818
F0.9821428571428572
aF0.9942857142857143
aI865
aa(lp2819
F0.9878571428571429
aF1.0
aI849
aa(lp2820
F0.9839285714285715
aF0.9992857142857143
aI852
aa(lp2821
F0.985
aF1.0
aI843
aa(lp2822
F0.9835714285714285
aF1.0
aI854
aa(lp2823
F0.9807142857142858
aF1.0
aI857
aa(lp2824
F0.9878571428571429
aF1.0
aI861
aa(lp2825
F0.9871428571428571
aF1.0
aI870
aa(lp2826
F0.9860714285714286
aF0.9992857142857143
aI877
aa(lp2827
F0.9921428571428571
aF1.0
aI872
aa(lp2828
F0.9839285714285715
aF0.9992857142857143
aI878
aa(lp2829
F0.9835714285714285
aF1.0
aI884
aa(lp2830
F0.9810714285714286
aF0.9978571428571429
aI851
aa(lp2831
F0.9857142857142858
aF1.0
aI870
aa(lp2832
F0.9921428571428572
aF0.9985714285714286
aI854
aa(lp2833
(lp2834
F0.5691666666666666
aF0.9916666666666667
aI863
aa(lp2835
F0.5958333333333333
aF0.9883333333333333
aI878
aa(lp2836
F0.6275
aF0.995
aI878
aa(lp2837
F0.6283333333333334
aF0.9966666666666667
aI905
aa(lp2838
F0.665
aF1.0
aI894
aa(lp2839
F0.6675
aF0.9983333333333333
aI877
aa(lp2840
F0.6908333333333333
aF0.9983333333333333
aI885
aa(lp2841
F0.6958333333333333
aF0.9983333333333333
aI891
aa(lp2842
F0.7208333333333333
aF0.9916666666666667
aI852
aa(lp2843
F0.7525
aF0.9983333333333333
aI885
aa(lp2844
F0.7391666666666667
aF0.9916666666666667
aI867
aa(lp2845
F0.7341666666666667
aF0.9916666666666667
aI872
aa(lp2846
F0.7608333333333333
aF0.9916666666666667
aI865
aa(lp2847
F0.7825
aF0.9983333333333333
aI860
aa(lp2848
F0.7733333333333333
aF0.99
aI861
aa(lp2849
F0.7916666666666667
aF0.9966666666666667
aI873
aa(lp2850
F0.8183333333333334
aF0.9866666666666667
aI861
aa(lp2851
F0.8383333333333334
aF1.0
aI876
aa(lp2852
F0.8366666666666667
aF0.9966666666666667
aI876
aa(lp2853
F0.8641666666666667
aF0.9916666666666667
aI866
aa(lp2854
F0.8883333333333334
aF0.9933333333333333
aI890
aa(lp2855
F0.8883333333333333
aF1.0
aI861
aa(lp2856
F0.8975
aF0.9983333333333333
aI843
aa(lp2857
F0.9066666666666665
aF0.9933333333333333
aI883
aa(lp2858
F0.9075
aF0.9916666666666667
aI881
aa(lp2859
F0.9258333333333334
aF0.9916666666666667
aI848
aa(lp2860
F0.895
aF0.9933333333333333
aI846
aa(lp2861
F0.9275
aF0.9983333333333333
aI857
aa(lp2862
F0.9458333333333333
aF0.995
aI871
aa(lp2863
F0.9533333333333334
aF0.9966666666666667
aI850
aa(lp2864
F0.9316666666666666
aF0.9966666666666667
aI871
aa(lp2865
F0.9325
aF0.9983333333333333
aI868
aa(lp2866
F0.9458333333333333
aF0.995
aI877
aa(lp2867
F0.9433333333333334
aF0.9966666666666667
aI861
aa(lp2868
F0.9575
aF0.995
aI848
aa(lp2869
F0.9591666666666667
aF0.9983333333333333
aI865
aa(lp2870
F0.9591666666666667
aF0.9983333333333333
aI849
aa(lp2871
F0.9558333333333333
aF0.995
aI852
aa(lp2872
F0.965
aF1.0
aI843
aa(lp2873
F0.9683333333333334
aF1.0
aI854
aa(lp2874
F0.9683333333333334
aF1.0
aI857
aa(lp2875
F0.9675
aF0.9983333333333333
aI861
aa(lp2876
F0.9633333333333334
aF1.0
aI870
aa(lp2877
F0.9633333333333334
aF0.9966666666666667
aI877
aa(lp2878
F0.9716666666666667
aF1.0
aI872
aa(lp2879
F0.9666666666666667
aF1.0
aI878
aa(lp2880
F0.9566666666666667
aF1.0
aI884
aa(lp2881
F0.9566666666666667
aF1.0
aI851
aa(lp2882
F0.965
aF1.0
aI870
aa(lp2883
F0.9708333333333333
aF0.9983333333333333
aI854
aatp2884
a((lp2885
(lp2886
F0.6742857142857143
aF1.0
aI860
aa(lp2887
F0.7253571428571428
aF0.9992857142857143
aI896
aa(lp2888
F0.7210714285714286
aF0.9992857142857143
aI897
aa(lp2889
F0.7457142857142858
aF0.9985714285714286
aI908
aa(lp2890
F0.7328571428571429
aF1.0
aI903
aa(lp2891
F0.7457142857142857
aF1.0
aI886
aa(lp2892
F0.7539285714285715
aF0.9978571428571429
aI887
aa(lp2893
F0.7692857142857144
aF0.9985714285714286
aI889
aa(lp2894
F0.7828571428571427
aF0.9985714285714286
aI886
aa(lp2895
F0.7714285714285715
aF0.9971428571428571
aI870
aa(lp2896
F0.7564285714285715
aF0.9985714285714286
aI878
aa(lp2897
F0.795
aF1.0
aI882
aa(lp2898
F0.7757142857142857
aF1.0
aI874
aa(lp2899
F0.7796428571428572
aF0.9964285714285714
aI876
aa(lp2900
F0.7746428571428572
aF0.9978571428571429
aI876
aa(lp2901
F0.7825
aF0.9992857142857143
aI884
aa(lp2902
F0.7975000000000001
aF0.9978571428571429
aI880
aa(lp2903
F0.8192857142857144
aF0.9985714285714286
aI892
aa(lp2904
F0.8178571428571428
aF1.0
aI879
aa(lp2905
F0.8457142857142858
aF1.0
aI882
aa(lp2906
F0.8442857142857143
aF1.0
aI856
aa(lp2907
F0.8653571428571429
aF0.9978571428571429
aI863
aa(lp2908
F0.8689285714285714
aF0.9992857142857143
aI870
aa(lp2909
F0.8724999999999999
aF0.9907142857142857
aI872
aa(lp2910
F0.9010714285714286
aF0.9935714285714285
aI862
aa(lp2911
F0.9125
aF0.9992857142857143
aI868
aa(lp2912
F0.9342857142857143
aF1.0
aI866
aa(lp2913
F0.9549999999999998
aF0.9985714285714286
aI869
aa(lp2914
F0.9485714285714285
aF0.9971428571428571
aI871
aa(lp2915
F0.9607142857142857
aF1.0
aI871
aa(lp2916
F0.9560714285714286
aF0.9992857142857143
aI880
aa(lp2917
F0.9639285714285715
aF0.9978571428571429
aI852
aa(lp2918
F0.9614285714285714
aF1.0
aI854
aa(lp2919
F0.9760714285714286
aF0.9992857142857143
aI876
aa(lp2920
F0.9632142857142858
aF0.9978571428571429
aI864
aa(lp2921
F0.9760714285714285
aF0.9978571428571429
aI859
aa(lp2922
F0.9732142857142857
aF0.9992857142857143
aI863
aa(lp2923
F0.9714285714285713
aF0.9985714285714286
aI857
aa(lp2924
F0.9864285714285714
aF0.9971428571428571
aI870
aa(lp2925
F0.9714285714285715
aF0.9942857142857143
aI845
aa(lp2926
F0.9696428571428571
aF0.9992857142857143
aI860
aa(lp2927
F0.9807142857142858
aF1.0
aI873
aa(lp2928
F0.9778571428571429
aF1.0
aI858
aa(lp2929
F0.9807142857142858
aF1.0
aI855
aa(lp2930
F0.9810714285714286
aF0.9992857142857143
aI851
aa(lp2931
F0.9814285714285714
aF0.9971428571428571
aI853
aa(lp2932
F0.9807142857142858
aF1.0
aI853
aa(lp2933
F0.995
aF1.0
aI862
aa(lp2934
F0.9953571428571428
aF0.9992857142857143
aI859
aa(lp2935
F0.9932142857142857
aF0.9992857142857143
aI852
aa(lp2936
(lp2937
F0.5833333333333335
aF0.9933333333333333
aI860
aa(lp2938
F0.6300000000000001
aF0.9966666666666667
aI896
aa(lp2939
F0.6691666666666667
aF0.995
aI897
aa(lp2940
F0.5975
aF0.9983333333333333
aI908
aa(lp2941
F0.63
aF1.0
aI903
aa(lp2942
F0.6566666666666666
aF1.0
aI886
aa(lp2943
F0.665
aF0.9966666666666667
aI887
aa(lp2944
F0.6583333333333333
aF1.0
aI889
aa(lp2945
F0.6725000000000001
aF0.995
aI886
aa(lp2946
F0.6991666666666666
aF0.9983333333333333
aI870
aa(lp2947
F0.6475
aF0.9983333333333333
aI878
aa(lp2948
F0.695
aF1.0
aI882
aa(lp2949
F0.675
aF1.0
aI874
aa(lp2950
F0.6725000000000001
aF0.9916666666666667
aI876
aa(lp2951
F0.6941666666666666
aF0.9883333333333333
aI876
aa(lp2952
F0.6791666666666667
aF0.9916666666666667
aI884
aa(lp2953
F0.7024999999999999
aF0.9883333333333333
aI880
aa(lp2954
F0.7466666666666666
aF0.9933333333333333
aI892
aa(lp2955
F0.7608333333333333
aF0.9916666666666667
aI879
aa(lp2956
F0.7625
aF0.9983333333333333
aI882
aa(lp2957
F0.7483333333333333
aF0.9933333333333333
aI856
aa(lp2958
F0.8008333333333333
aF0.995
aI863
aa(lp2959
F0.7891666666666668
aF0.995
aI870
aa(lp2960
F0.7866666666666666
aF0.98
aI872
aa(lp2961
F0.8133333333333332
aF0.9933333333333333
aI862
aa(lp2962
F0.8541666666666667
aF0.9883333333333333
aI868
aa(lp2963
F0.8691666666666666
aF0.9983333333333333
aI866
aa(lp2964
F0.8875
aF0.995
aI869
aa(lp2965
F0.8966666666666667
aF0.9966666666666667
aI871
aa(lp2966
F0.9333333333333333
aF0.9966666666666667
aI871
aa(lp2967
F0.9275
aF0.9983333333333333
aI880
aa(lp2968
F0.93
aF1.0
aI852
aa(lp2969
F0.9441666666666666
aF0.995
aI854
aa(lp2970
F0.96
aF1.0
aI876
aa(lp2971
F0.9375
aF0.9983333333333333
aI864
aa(lp2972
F0.9641666666666667
aF0.9983333333333333
aI859
aa(lp2973
F0.9483333333333334
aF1.0
aI863
aa(lp2974
F0.9508333333333334
aF0.995
aI857
aa(lp2975
F0.9483333333333334
aF0.99
aI870
aa(lp2976
F0.9475
aF0.9883333333333333
aI845
aa(lp2977
F0.9483333333333333
aF0.9933333333333333
aI860
aa(lp2978
F0.9524999999999999
aF0.9983333333333333
aI873
aa(lp2979
F0.9574999999999999
aF0.9983333333333333
aI858
aa(lp2980
F0.9633333333333334
aF0.9966666666666667
aI855
aa(lp2981
F0.9658333333333333
aF0.9983333333333333
aI851
aa(lp2982
F0.9733333333333334
aF0.9966666666666667
aI853
aa(lp2983
F0.955
aF1.0
aI853
aa(lp2984
F0.9766666666666667
aF1.0
aI862
aa(lp2985
F0.9883333333333333
aF1.0
aI859
aa(lp2986
F0.9875
aF0.9983333333333333
aI852
aatp2987
a((lp2988
(lp2989
F0.6975
aF0.995
aI863
aa(lp2990
F0.7228571428571429
aF0.9928571428571429
aI871
aa(lp2991
F0.7417857142857143
aF0.9935714285714285
aI898
aa(lp2992
F0.7625
aF0.995
aI886
aa(lp2993
F0.7514285714285716
aF0.9985714285714286
aI886
aa(lp2994
F0.7453571428571428
aF0.9992857142857143
aI875
aa(lp2995
F0.8003571428571428
aF0.9992857142857143
aI887
aa(lp2996
F0.7935714285714286
aF0.9971428571428571
aI884
aa(lp2997
F0.7882142857142858
aF0.9992857142857143
aI886
aa(lp2998
F0.8025
aF0.9978571428571429
aI890
aa(lp2999
F0.8125
aF0.9992857142857143
aI888
aa(lp3000
F0.8207142857142857
aF1.0
aI869
aa(lp3001
F0.8400000000000001
aF0.9942857142857143
aI870
aa(lp3002
F0.8678571428571429
aF0.9957142857142857
aI877
aa(lp3003
F0.8871428571428572
aF0.9985714285714286
aI873
aa(lp3004
F0.9035714285714285
aF0.9942857142857143
aI871
aa(lp3005
F0.8928571428571428
aF0.9985714285714286
aI874
aa(lp3006
F0.9203571428571429
aF0.9892857142857143
aI865
aa(lp3007
F0.9375
aF0.9992857142857143
aI880
aa(lp3008
F0.9453571428571429
aF0.9992857142857143
aI879
aa(lp3009
F0.9660714285714286
aF0.9992857142857143
aI871
aa(lp3010
F0.965
aF1.0
aI868
aa(lp3011
F0.9857142857142858
aF0.9985714285714286
aI864
aa(lp3012
F0.9735714285714285
aF1.0
aI865
aa(lp3013
F0.9853571428571429
aF0.9992857142857143
aI855
aa(lp3014
F0.9921428571428571
aF1.0
aI869
aa(lp3015
F0.9846428571428572
aF0.9978571428571429
aI865
aa(lp3016
F0.99
aF1.0
aI875
aa(lp3017
F0.99
aF1.0
aI884
aa(lp3018
F0.99
aF1.0
aI872
aa(lp3019
F0.9832142857142857
aF0.9992857142857143
aI867
aa(lp3020
F0.9885714285714285
aF1.0
aI855
aa(lp3021
F0.9907142857142858
aF1.0
aI872
aa(lp3022
F0.99
aF1.0
aI856
aa(lp3023
F0.9878571428571429
aF1.0
aI859
aa(lp3024
F0.9871428571428571
aF1.0
aI865
aa(lp3025
F0.9914285714285714
aF1.0
aI858
aa(lp3026
F0.9889285714285715
aF0.9992857142857143
aI859
aa(lp3027
F0.995
aF1.0
aI857
aa(lp3028
F0.9935714285714285
aF1.0
aI864
aa(lp3029
F0.995
aF1.0
aI835
aa(lp3030
F1.0
aF1.0
aI879
aa(lp3031
F0.9978571428571429
aF1.0
aI865
aa(lp3032
F0.9971428571428571
aF1.0
aI865
aa(lp3033
F0.9957142857142857
aF1.0
aI859
aa(lp3034
F0.9914285714285714
aF1.0
aI845
aa(lp3035
F0.9921428571428571
aF1.0
aI847
aa(lp3036
F0.9892857142857143
aF1.0
aI864
aa(lp3037
F0.9914285714285714
aF1.0
aI859
aa(lp3038
F0.9957142857142857
aF1.0
aI879
aa(lp3039
(lp3040
F0.5741666666666667
aF0.985
aI863
aa(lp3041
F0.5925
aF0.9783333333333333
aI871
aa(lp3042
F0.6033333333333333
aF0.9766666666666667
aI898
aa(lp3043
F0.6333333333333333
aF0.9933333333333333
aI886
aa(lp3044
F0.5783333333333334
aF0.9966666666666667
aI886
aa(lp3045
F0.64
aF1.0
aI875
aa(lp3046
F0.6266666666666667
aF0.9966666666666667
aI887
aa(lp3047
F0.6791666666666667
aF0.995
aI884
aa(lp3048
F0.6816666666666666
aF0.9966666666666667
aI886
aa(lp3049
F0.6908333333333332
aF0.995
aI890
aa(lp3050
F0.7091666666666667
aF0.9983333333333333
aI888
aa(lp3051
F0.73
aF1.0
aI869
aa(lp3052
F0.7541666666666667
aF0.9883333333333333
aI870
aa(lp3053
F0.7475
aF0.9883333333333333
aI877
aa(lp3054
F0.7925
aF0.995
aI873
aa(lp3055
F0.8058333333333333
aF0.9883333333333333
aI871
aa(lp3056
F0.7933333333333333
aF0.99
aI874
aa(lp3057
F0.8600000000000001
aF0.9766666666666667
aI865
aa(lp3058
F0.8808333333333334
aF0.995
aI880
aa(lp3059
F0.8841666666666667
aF0.9816666666666667
aI879
aa(lp3060
F0.925
aF0.9966666666666667
aI871
aa(lp3061
F0.9574999999999999
aF0.9983333333333333
aI868
aa(lp3062
F0.9733333333333334
aF1.0
aI864
aa(lp3063
F0.955
aF1.0
aI865
aa(lp3064
F0.9566666666666667
aF1.0
aI855
aa(lp3065
F0.9808333333333332
aF0.9983333333333333
aI869
aa(lp3066
F0.9675
aF0.9983333333333333
aI865
aa(lp3067
F0.9733333333333334
aF1.0
aI875
aa(lp3068
F0.9633333333333334
aF1.0
aI884
aa(lp3069
F0.9716666666666667
aF1.0
aI872
aa(lp3070
F0.9783333333333334
aF1.0
aI867
aa(lp3071
F0.97
aF1.0
aI855
aa(lp3072
F0.9858333333333333
aF0.9983333333333333
aI872
aa(lp3073
F0.985
aF1.0
aI856
aa(lp3074
F0.9816666666666667
aF1.0
aI859
aa(lp3075
F0.9833333333333333
aF1.0
aI865
aa(lp3076
F0.9883333333333333
aF1.0
aI858
aa(lp3077
F0.9716666666666667
aF1.0
aI859
aa(lp3078
F0.9783333333333334
aF1.0
aI857
aa(lp3079
F0.9866666666666667
aF1.0
aI864
aa(lp3080
F0.9933333333333333
aF1.0
aI835
aa(lp3081
F0.9966666666666667
aF1.0
aI879
aa(lp3082
F0.9916666666666667
aF1.0
aI865
aa(lp3083
F0.9916666666666667
aF1.0
aI865
aa(lp3084
F0.995
aF1.0
aI859
aa(lp3085
F0.9758333333333333
aF0.9983333333333333
aI845
aa(lp3086
F0.9883333333333333
aF1.0
aI847
aa(lp3087
F0.98
aF0.9966666666666667
aI864
aa(lp3088
F0.98
aF1.0
aI859
aa(lp3089
F0.9833333333333333
aF1.0
aI879
aatp3090
a.