(lp0
((lp1
(lp2
F0.67421875
aF0.875
aI947
aa(lp3
F0.59953125
aF0.79453125
aI907
aa(lp4
F0.6322656249999999
aF0.78046875
aI910
aa(lp5
F0.6370312499999999
aF0.84921875
aI930
aa(lp6
F0.636015625
aF0.82109375
aI924
aa(lp7
F0.6457812500000001
aF0.8234375
aI921
aa(lp8
F0.629921875
aF0.88125
aI921
aa(lp9
F0.6617187500000001
aF0.8515625
aI904
aa(lp10
F0.6361718749999999
aF0.83359375
aI913
aa(lp11
F0.6560156249999999
aF0.8234375
aI924
aa(lp12
F0.6203906250000001
aF0.80390625
aI927
aa(lp13
F0.6331249999999999
aF0.82578125
aI921
aa(lp14
F0.6227343750000001
aF0.81171875
aI924
aa(lp15
F0.627421875
aF0.8046875
aI933
aa(lp16
F0.6203124999999999
aF0.83671875
aI900
aa(lp17
F0.6225
aF0.83125
aI909
aa(lp18
F0.629765625
aF0.828125
aI934
aa(lp19
F0.65
aF0.84453125
aI934
aa(lp20
F0.6326562499999999
aF0.83203125
aI909
aa(lp21
F0.6420312499999999
aF0.8375
aI918
aa(lp22
F0.6128906249999999
aF0.8171875
aI920
aa(lp23
F0.632734375
aF0.80625
aI921
aa(lp24
F0.6352343750000001
aF0.84375
aI932
aa(lp25
F0.63453125
aF0.85
aI923
aa(lp26
F0.621875
aF0.8203125
aI909
aa(lp27
F0.64
aF0.81171875
aI916
aa(lp28
F0.665078125
aF0.83359375
aI916
aa(lp29
F0.6579687499999999
aF0.84375
aI922
aa(lp30
F0.650390625
aF0.78515625
aI927
aa(lp31
F0.62890625
aF0.8203125
aI910
aa(lp32
F0.633359375
aF0.815625
aI926
aa(lp33
F0.640625
aF0.8046875
aI927
aa(lp34
F0.65125
aF0.82421875
aI935
aa(lp35
F0.64296875
aF0.859375
aI933
aa(lp36
F0.63921875
aF0.81171875
aI923
aa(lp37
F0.6446093749999999
aF0.81171875
aI929
aa(lp38
F0.63453125
aF0.81875
aI925
aa(lp39
F0.640546875
aF0.80703125
aI929
aa(lp40
F0.653125
aF0.84453125
aI929
aa(lp41
F0.617890625
aF0.821875
aI912
aa(lp42
F0.6606250000000001
aF0.8234375
aI904
aa(lp43
F0.67265625
aF0.86015625
aI924
aa(lp44
F0.683125
aF0.88359375
aI920
aa(lp45
F0.6627343750000001
aF0.84921875
aI908
aa(lp46
F0.676171875
aF0.85546875
aI900
aa(lp47
F0.64453125
aF0.85234375
aI909
aa(lp48
F0.64625
aF0.834375
aI918
aa(lp49
F0.68953125
aF0.8640625
aI926
aa(lp50
F0.6710937499999999
aF0.8609375
aI916
aa(lp51
F0.6780468749999999
aF0.8609375
aI924
aa(lp52
(lp53
F0.2296875
aF0.6875
aI947
aa(lp54
F0.18828124999999998
aF0.5546875
aI907
aa(lp55
F0.20921875
aF0.4859375
aI910
aa(lp56
F0.2521875
aF0.6671875
aI930
aa(lp57
F0.24500000000000002
aF0.596875
aI924
aa(lp58
F0.27515625
aF0.6234375
aI921
aa(lp59
F0.2446875
aF0.69375
aI921
aa(lp60
F0.26984375
aF0.6140625
aI904
aa(lp61
F0.23671875000000003
aF0.6640625
aI913
aa(lp62
F0.21484375
aF0.6015625
aI924
aa(lp63
F0.22765625
aF0.5671875
aI927
aa(lp64
F0.2015625
aF0.609375
aI921
aa(lp65
F0.22828125
aF0.6078125
aI924
aa(lp66
F0.23937499999999998
aF0.54375
aI933
aa(lp67
F0.21625000000000003
aF0.665625
aI900
aa(lp68
F0.26390625
aF0.6109375
aI909
aa(lp69
F0.241875
aF0.596875
aI934
aa(lp70
F0.23046875
aF0.61875
aI934
aa(lp71
F0.20921875
aF0.565625
aI909
aa(lp72
F0.24609375
aF0.6015625
aI918
aa(lp73
F0.22093750000000004
aF0.665625
aI920
aa(lp74
F0.2565625
aF0.575
aI921
aa(lp75
F0.25265624999999997
aF0.6296875
aI932
aa(lp76
F0.27328125
aF0.6265625
aI923
aa(lp77
F0.26875
aF0.609375
aI909
aa(lp78
F0.30437500000000006
aF0.596875
aI916
aa(lp79
F0.2828125
aF0.609375
aI916
aa(lp80
F0.27453125
aF0.63125
aI922
aa(lp81
F0.22203124999999999
aF0.5296875
aI927
aa(lp82
F0.21609375
aF0.6046875
aI910
aa(lp83
F0.21796875000000002
aF0.6015625
aI926
aa(lp84
F0.23249999999999998
aF0.55
aI927
aa(lp85
F0.23265625000000004
aF0.5328125
aI935
aa(lp86
F0.25187499999999996
aF0.66875
aI933
aa(lp87
F0.265625
aF0.5625
aI923
aa(lp88
F0.273125
aF0.58125
aI929
aa(lp89
F0.24484375
aF0.5515625
aI925
aa(lp90
F0.23546875
aF0.5515625
aI929
aa(lp91
F0.28796875000000005
aF0.684375
aI929
aa(lp92
F0.25984375000000004
aF0.6203125
aI912
aa(lp93
F0.26890625
aF0.6234375
aI904
aa(lp94
F0.28078125
aF0.5984375
aI924
aa(lp95
F0.2715625
aF0.6921875
aI920
aa(lp96
F0.33109375
aF0.6265625
aI908
aa(lp97
F0.285
aF0.65
aI900
aa(lp98
F0.28734375
aF0.6421875
aI909
aa(lp99
F0.273125
aF0.565625
aI918
aa(lp100
F0.29703124999999997
aF0.6390625
aI926
aa(lp101
F0.28203125
aF0.6328125
aI916
aa(lp102
F0.29624999999999996
aF0.63125
aI924
aatp103
a((lp104
(lp105
F0.6725
aF0.8453125
aI939
aa(lp106
F0.61140625
aF0.86328125
aI925
aa(lp107
F0.630703125
aF0.865625
aI920
aa(lp108
F0.62953125
aF0.853125
aI919
aa(lp109
F0.642109375
aF0.85234375
aI908
aa(lp110
F0.6246875000000001
aF0.815625
aI920
aa(lp111
F0.6346875000000001
aF0.8015625
aI912
aa(lp112
F0.6203125
aF0.78984375
aI923
aa(lp113
F0.637578125
aF0.82890625
aI928
aa(lp114
F0.61625
aF0.821875
aI914
aa(lp115
F0.610390625
aF0.8109375
aI922
aa(lp116
F0.635234375
aF0.8125
aI926
aa(lp117
F0.656875
aF0.8140625
aI918
aa(lp118
F0.62265625
aF0.8453125
aI904
aa(lp119
F0.63921875
aF0.81953125
aI912
aa(lp120
F0.634609375
aF0.82578125
aI916
aa(lp121
F0.59984375
aF0.80625
aI928
aa(lp122
F0.6305468750000001
aF0.87421875
aI918
aa(lp123
F0.6416406250000001
aF0.81953125
aI912
aa(lp124
F0.6269531250000001
aF0.79609375
aI919
aa(lp125
F0.6453906250000001
aF0.8609375
aI931
aa(lp126
F0.6375781250000001
aF0.81953125
aI931
aa(lp127
F0.62609375
aF0.83359375
aI920
aa(lp128
F0.59296875
aF0.78984375
aI922
aa(lp129
F0.6282031250000001
aF0.82109375
aI931
aa(lp130
F0.640234375
aF0.809375
aI920
aa(lp131
F0.634375
aF0.79765625
aI911
aa(lp132
F0.626953125
aF0.78671875
aI909
aa(lp133
F0.638046875
aF0.81484375
aI923
aa(lp134
F0.656171875
aF0.83671875
aI923
aa(lp135
F0.6371875
aF0.8390625
aI923
aa(lp136
F0.6653125000000001
aF0.81640625
aI921
aa(lp137
F0.653203125
aF0.83515625
aI922
aa(lp138
F0.650859375
aF0.81328125
aI920
aa(lp139
F0.662265625
aF0.85390625
aI915
aa(lp140
F0.6326562499999999
aF0.853125
aI924
aa(lp141
F0.5686718749999999
aF0.83046875
aI923
aa(lp142
F0.636171875
aF0.81796875
aI918
aa(lp143
F0.6417968749999999
aF0.85625
aI918
aa(lp144
F0.6731250000000001
aF0.83984375
aI919
aa(lp145
F0.644921875
aF0.83984375
aI925
aa(lp146
F0.6353906250000001
aF0.84140625
aI920
aa(lp147
F0.65046875
aF0.8
aI919
aa(lp148
F0.6303125
aF0.7984375
aI922
aa(lp149
F0.6559375000000001
aF0.825
aI927
aa(lp150
F0.6294531250000001
aF0.83203125
aI907
aa(lp151
F0.651328125
aF0.84609375
aI907
aa(lp152
F0.63375
aF0.82109375
aI913
aa(lp153
F0.652265625
aF0.86015625
aI914
aa(lp154
F0.616640625
aF0.8578125
aI934
aa(lp155
(lp156
F0.19921875
aF0.6640625
aI939
aa(lp157
F0.23265625
aF0.6734375
aI925
aa(lp158
F0.25359375
aF0.6203125
aI920
aa(lp159
F0.21687499999999998
aF0.628125
aI919
aa(lp160
F0.25734375
aF0.6140625
aI908
aa(lp161
F0.2009375
aF0.553125
aI920
aa(lp162
F0.20765625000000001
aF0.4703125
aI912
aa(lp163
F0.20125
aF0.51875
aI923
aa(lp164
F0.24109375000000002
aF0.5734375
aI928
aa(lp165
F0.2040625
aF0.584375
aI914
aa(lp166
F0.1928125
aF0.525
aI922
aa(lp167
F0.2184375
aF0.55
aI926
aa(lp168
F0.20390625
aF0.5234375
aI918
aa(lp169
F0.23296874999999997
aF0.6234375
aI904
aa(lp170
F0.236875
aF0.584375
aI912
aa(lp171
F0.23124999999999998
aF0.59375
aI916
aa(lp172
F0.19953125
aF0.6140625
aI928
aa(lp173
F0.221875
aF0.65625
aI918
aa(lp174
F0.2384375
aF0.584375
aI912
aa(lp175
F0.23109375000000001
aF0.5171875
aI919
aa(lp176
F0.19874999999999998
aF0.653125
aI931
aa(lp177
F0.2246875
aF0.596875
aI931
aa(lp178
F0.218125
aF0.5375
aI920
aa(lp179
F0.21203124999999998
aF0.5828125
aI922
aa(lp180
F0.20593750000000002
aF0.6171875
aI931
aa(lp181
F0.19453125000000002
aF0.5703125
aI920
aa(lp182
F0.23750000000000002
aF0.640625
aI911
aa(lp183
F0.22156250000000005
aF0.55
aI909
aa(lp184
F0.25984375000000004
aF0.5890625
aI923
aa(lp185
F0.2665625
aF0.615625
aI923
aa(lp186
F0.2065625
aF0.66875
aI923
aa(lp187
F0.2396875
aF0.5875
aI921
aa(lp188
F0.24109375
aF0.6046875
aI922
aa(lp189
F0.25171875
aF0.5921875
aI920
aa(lp190
F0.26484375
aF0.6171875
aI915
aa(lp191
F0.24515624999999996
aF0.7203125
aI924
aa(lp192
F0.2671875
aF0.71875
aI923
aa(lp193
F0.25265624999999997
aF0.5671875
aI918
aa(lp194
F0.26140625
aF0.6984375
aI918
aa(lp195
F0.27734375
aF0.5859375
aI919
aa(lp196
F0.2525
aF0.6
aI925
aa(lp197
F0.25484375
aF0.6078125
aI920
aa(lp198
F0.26765625000000004
aF0.5578125
aI919
aa(lp199
F0.24312500000000004
aF0.553125
aI922
aa(lp200
F0.23671874999999998
aF0.6328125
aI927
aa(lp201
F0.27265625
aF0.6328125
aI907
aa(lp202
F0.2646875
aF0.665625
aI907
aa(lp203
F0.24249999999999997
aF0.621875
aI913
aa(lp204
F0.2675
aF0.684375
aI914
aa(lp205
F0.25125000000000003
aF0.70625
aI934
aatp206
a((lp207
(lp208
F0.6977343749999999
aF0.90546875
aI956
aa(lp209
F0.59578125
aF0.815625
aI919
aa(lp210
F0.6296875
aF0.84375
aI903
aa(lp211
F0.644140625
aF0.8484375
aI933
aa(lp212
F0.651953125
aF0.85625
aI927
aa(lp213
F0.656015625
aF0.846875
aI915
aa(lp214
F0.6731250000000001
aF0.8390625
aI918
aa(lp215
F0.643203125
aF0.8578125
aI930
aa(lp216
F0.6664062500000001
aF0.853125
aI918
aa(lp217
F0.6243749999999999
aF0.803125
aI925
aa(lp218
F0.6597656249999999
aF0.8171875
aI931
aa(lp219
F0.6368750000000001
aF0.8125
aI921
aa(lp220
F0.64859375
aF0.8453125
aI920
aa(lp221
F0.6459374999999999
aF0.8140625
aI913
aa(lp222
F0.6271875
aF0.79609375
aI928
aa(lp223
F0.6365625
aF0.79921875
aI919
aa(lp224
F0.6545312500000001
aF0.84609375
aI921
aa(lp225
F0.6440624999999999
aF0.7875
aI929
aa(lp226
F0.63796875
aF0.83125
aI923
aa(lp227
F0.6311718749999999
aF0.82890625
aI928
aa(lp228
F0.63796875
aF0.8703125
aI917
aa(lp229
F0.6632031249999999
aF0.846875
aI918
aa(lp230
F0.6995312499999999
aF0.8953125
aI915
aa(lp231
F0.6521874999999999
aF0.8921875
aI904
aa(lp232
F0.656484375
aF0.865625
aI906
aa(lp233
F0.6867187499999999
aF0.86875
aI925
aa(lp234
F0.69140625
aF0.8671875
aI936
aa(lp235
F0.69140625
aF0.878125
aI918
aa(lp236
F0.687421875
aF0.87578125
aI910
aa(lp237
F0.690234375
aF0.83984375
aI908
aa(lp238
F0.701328125
aF0.85390625
aI928
aa(lp239
F0.6759375000000001
aF0.8734375
aI934
aa(lp240
F0.6442968750000001
aF0.815625
aI930
aa(lp241
F0.6592187500000001
aF0.8234375
aI926
aa(lp242
F0.6492187500000001
aF0.828125
aI909
aa(lp243
F0.6646875
aF0.8453125
aI916
aa(lp244
F0.6946093750000001
aF0.84375
aI920
aa(lp245
F0.70296875
aF0.88515625
aI913
aa(lp246
F0.68359375
aF0.90625
aI919
aa(lp247
F0.6549218750000001
aF0.86640625
aI905
aa(lp248
F0.6667187499999999
aF0.86484375
aI922
aa(lp249
F0.64515625
aF0.84609375
aI934
aa(lp250
F0.643671875
aF0.8453125
aI924
aa(lp251
F0.6533593750000001
aF0.85703125
aI937
aa(lp252
F0.6194531249999999
aF0.84453125
aI930
aa(lp253
F0.6730468749999999
aF0.85625
aI927
aa(lp254
F0.656328125
aF0.8828125
aI917
aa(lp255
F0.6381249999999999
aF0.8546875
aI914
aa(lp256
F0.6719531249999999
aF0.8671875
aI921
aa(lp257
F0.67359375
aF0.865625
aI918
aa(lp258
(lp259
F0.22000000000000003
aF0.76875
aI956
aa(lp260
F0.24265625000000002
aF0.6046875
aI919
aa(lp261
F0.23875000000000002
aF0.64375
aI903
aa(lp262
F0.24359375
aF0.6109375
aI933
aa(lp263
F0.22312500000000002
aF0.6125
aI927
aa(lp264
F0.25453125
aF0.6265625
aI915
aa(lp265
F0.26953125
aF0.5859375
aI918
aa(lp266
F0.254375
aF0.596875
aI930
aa(lp267
F0.27046875
aF0.5921875
aI918
aa(lp268
F0.1853125
aF0.584375
aI925
aa(lp269
F0.24953125
aF0.5515625
aI931
aa(lp270
F0.23750000000000002
aF0.546875
aI921
aa(lp271
F0.26046875
aF0.615625
aI920
aa(lp272
F0.22124999999999997
aF0.56875
aI913
aa(lp273
F0.20015624999999998
aF0.5140625
aI928
aa(lp274
F0.24781250000000002
aF0.521875
aI919
aa(lp275
F0.26203125
aF0.63125
aI921
aa(lp276
F0.24828124999999998
aF0.5796875
aI929
aa(lp277
F0.29421875000000003
aF0.6359375
aI923
aa(lp278
F0.26640625
aF0.6484375
aI928
aa(lp279
F0.2790625
aF0.6625
aI917
aa(lp280
F0.2840625
aF0.596875
aI918
aa(lp281
F0.29546875
aF0.6859375
aI915
aa(lp282
F0.30203125000000003
aF0.7296875
aI904
aa(lp283
F0.2903125
aF0.675
aI906
aa(lp284
F0.30890624999999994
aF0.6453125
aI925
aa(lp285
F0.271875
aF0.640625
aI936
aa(lp286
F0.30640625000000005
aF0.6421875
aI918
aa(lp287
F0.28359375
aF0.6640625
aI910
aa(lp288
F0.32109375
aF0.6015625
aI908
aa(lp289
F0.29140625
aF0.5703125
aI928
aa(lp290
F0.29328125
aF0.6296875
aI934
aa(lp291
F0.27296875
aF0.5828125
aI930
aa(lp292
F0.25671875
aF0.5578125
aI926
aa(lp293
F0.24984374999999998
aF0.5796875
aI909
aa(lp294
F0.27765625
aF0.63125
aI916
aa(lp295
F0.33749999999999997
aF0.640625
aI920
aa(lp296
F0.36968749999999995
aF0.6625
aI913
aa(lp297
F0.35
aF0.703125
aI919
aa(lp298
F0.28671875
aF0.6796875
aI905
aa(lp299
F0.3028125
aF0.70625
aI922
aa(lp300
F0.25281250000000005
aF0.64375
aI934
aa(lp301
F0.24906249999999996
aF0.68125
aI924
aa(lp302
F0.25890625
aF0.6140625
aI937
aa(lp303
F0.26546875
aF0.6890625
aI930
aa(lp304
F0.2571875
aF0.615625
aI927
aa(lp305
F0.2728125
aF0.709375
aI917
aa(lp306
F0.230625
aF0.646875
aI914
aa(lp307
F0.29828125
aF0.6421875
aI921
aa(lp308
F0.29515625
aF0.6109375
aI918
aatp309
a((lp310
(lp311
F0.7013281250000001
aF0.87734375
aI940
aa(lp312
F0.5963281250000001
aF0.78671875
aI907
aa(lp313
F0.6136718750000001
aF0.79296875
aI909
aa(lp314
F0.6415625
aF0.81875
aI909
aa(lp315
F0.636953125
aF0.78046875
aI922
aa(lp316
F0.6492187500000001
aF0.81328125
aI924
aa(lp317
F0.6284374999999999
aF0.825
aI921
aa(lp318
F0.628671875
aF0.80859375
aI920
aa(lp319
F0.6417968749999999
aF0.84921875
aI929
aa(lp320
F0.646328125
aF0.81875
aI936
aa(lp321
F0.618984375
aF0.78828125
aI920
aa(lp322
F0.616953125
aF0.78671875
aI916
aa(lp323
F0.6221875
aF0.796875
aI935
aa(lp324
F0.611796875
aF0.78203125
aI924
aa(lp325
F0.614375
aF0.79453125
aI924
aa(lp326
F0.6100000000000001
aF0.79140625
aI916
aa(lp327
F0.6378125
aF0.85625
aI916
aa(lp328
F0.6375781250000001
aF0.84375
aI909
aa(lp329
F0.6568750000000001
aF0.82421875
aI918
aa(lp330
F0.648203125
aF0.7921875
aI920
aa(lp331
F0.6292968750000001
aF0.79296875
aI908
aa(lp332
F0.65328125
aF0.81875
aI922
aa(lp333
F0.6483593750000001
aF0.82109375
aI927
aa(lp334
F0.647578125
aF0.85390625
aI906
aa(lp335
F0.643359375
aF0.81640625
aI918
aa(lp336
F0.651015625
aF0.83359375
aI923
aa(lp337
F0.65921875
aF0.8765625
aI915
aa(lp338
F0.6518750000000001
aF0.840625
aI918
aa(lp339
F0.6599999999999999
aF0.8296875
aI931
aa(lp340
F0.6481250000000001
aF0.840625
aI928
aa(lp341
F0.642890625
aF0.83828125
aI924
aa(lp342
F0.630625
aF0.8421875
aI910
aa(lp343
F0.64859375
aF0.82734375
aI914
aa(lp344
F0.6685937500000001
aF0.8453125
aI928
aa(lp345
F0.66640625
aF0.86796875
aI928
aa(lp346
F0.6809375
aF0.83984375
aI918
aa(lp347
F0.6870312499999999
aF0.86484375
aI907
aa(lp348
F0.6765625
aF0.8671875
aI914
aa(lp349
F0.6753125000000001
aF0.88046875
aI910
aa(lp350
F0.6884374999999999
aF0.88125
aI918
aa(lp351
F0.679921875
aF0.85703125
aI922
aa(lp352
F0.69234375
aF0.8890625
aI911
aa(lp353
F0.689609375
aF0.88515625
aI907
aa(lp354
F0.7074218750000001
aF0.84765625
aI915
aa(lp355
F0.6984375
aF0.890625
aI905
aa(lp356
F0.708046875
aF0.87265625
aI909
aa(lp357
F0.6885937499999999
aF0.86484375
aI904
aa(lp358
F0.6951562500000001
aF0.9078125
aI907
aa(lp359
F0.6935156250000001
aF0.87734375
aI908
aa(lp360
F0.690546875
aF0.8765625
aI926
aa(lp361
(lp362
F0.19968750000000002
aF0.675
aI940
aa(lp363
F0.23796875
aF0.5734375
aI907
aa(lp364
F0.22859374999999998
aF0.5109375
aI909
aa(lp365
F0.23953125000000003
aF0.5734375
aI909
aa(lp366
F0.21875
aF0.53125
aI922
aa(lp367
F0.20218750000000002
aF0.509375
aI924
aa(lp368
F0.21875
aF0.609375
aI921
aa(lp369
F0.19093749999999998
aF0.5296875
aI920
aa(lp370
F0.23562499999999997
aF0.64375
aI929
aa(lp371
F0.19140624999999997
aF0.5546875
aI936
aa(lp372
F0.2025
aF0.50625
aI920
aa(lp373
F0.20781249999999998
aF0.515625
aI916
aa(lp374
F0.26796875
aF0.5703125
aI935
aa(lp375
F0.24359375000000003
aF0.5328125
aI924
aa(lp376
F0.2621875
aF0.565625
aI924
aa(lp377
F0.23515625
aF0.6015625
aI916
aa(lp378
F0.27671875
aF0.6859375
aI916
aa(lp379
F0.25390625
aF0.6484375
aI909
aa(lp380
F0.22953125000000002
aF0.5484375
aI918
aa(lp381
F0.22375
aF0.5125
aI920
aa(lp382
F0.198125
aF0.47187500000000004
aI908
aa(lp383
F0.2184375
aF0.596875
aI922
aa(lp384
F0.24203125000000003
aF0.5640625
aI927
aa(lp385
F0.22999999999999998
aF0.621875
aI906
aa(lp386
F0.22749999999999998
aF0.553125
aI918
aa(lp387
F0.26328125
aF0.6171875
aI923
aa(lp388
F0.31124999999999997
aF0.715625
aI915
aa(lp389
F0.26015625
aF0.6484375
aI918
aa(lp390
F0.25484375
aF0.5765625
aI931
aa(lp391
F0.24359375000000003
aF0.5953125
aI928
aa(lp392
F0.2284375
aF0.6390625
aI924
aa(lp393
F0.241875
aF0.64375
aI910
aa(lp394
F0.24124999999999996
aF0.5890625
aI914
aa(lp395
F0.25078125
aF0.5859375
aI928
aa(lp396
F0.28640625000000003
aF0.6515625
aI928
aa(lp397
F0.29609375
aF0.6484375
aI918
aa(lp398
F0.30734375
aF0.6609375
aI907
aa(lp399
F0.31890625000000006
aF0.6859375
aI914
aa(lp400
F0.32015625000000003
aF0.7046875
aI910
aa(lp401
F0.33375
aF0.709375
aI918
aa(lp402
F0.34218750000000003
aF0.671875
aI922
aa(lp403
F0.35046875
aF0.6671875
aI911
aa(lp404
F0.33046875000000003
aF0.6796875
aI907
aa(lp405
F0.3296875
aF0.640625
aI915
aa(lp406
F0.363125
aF0.728125
aI905
aa(lp407
F0.37625000000000003
aF0.690625
aI909
aa(lp408
F0.3428125
aF0.665625
aI904
aa(lp409
F0.35562499999999997
aF0.740625
aI907
aa(lp410
F0.366875
aF0.70625
aI908
aa(lp411
F0.34921875
aF0.68125
aI926
aatp412
a((lp413
(lp414
F0.668125
aF0.8734375
aI944
aa(lp415
F0.6444531249999998
aF0.80703125
aI911
aa(lp416
F0.623359375
aF0.82265625
aI913
aa(lp417
F0.64609375
aF0.8359375
aI930
aa(lp418
F0.63953125
aF0.815625
aI917
aa(lp419
F0.6585156249999999
aF0.82890625
aI929
aa(lp420
F0.628671875
aF0.81640625
aI922
aa(lp421
F0.62265625
aF0.8515625
aI903
aa(lp422
F0.640390625
aF0.8
aI922
aa(lp423
F0.63
aF0.8328125
aI930
aa(lp424
F0.646015625
aF0.82109375
aI924
aa(lp425
F0.6185156249999999
aF0.82265625
aI911
aa(lp426
F0.622109375
aF0.82578125
aI926
aa(lp427
F0.62265625
aF0.8140625
aI930
aa(lp428
F0.6371875
aF0.846875
aI927
aa(lp429
F0.6256250000000001
aF0.8078125
aI920
aa(lp430
F0.627578125
aF0.81953125
aI915
aa(lp431
F0.6342187499999999
aF0.85390625
aI924
aa(lp432
F0.6393749999999999
aF0.8640625
aI926
aa(lp433
F0.625078125
aF0.84296875
aI918
aa(lp434
F0.6253906250000001
aF0.8328125
aI918
aa(lp435
F0.639765625
aF0.82109375
aI928
aa(lp436
F0.61765625
aF0.81640625
aI920
aa(lp437
F0.6388281249999999
aF0.8234375
aI931
aa(lp438
F0.65109375
aF0.85625
aI915
aa(lp439
F0.636640625
aF0.82890625
aI934
aa(lp440
F0.623046875
aF0.81640625
aI925
aa(lp441
F0.628984375
aF0.83828125
aI928
aa(lp442
F0.615390625
aF0.815625
aI912
aa(lp443
F0.629921875
aF0.81953125
aI920
aa(lp444
F0.6421875
aF0.85234375
aI924
aa(lp445
F0.649921875
aF0.80546875
aI917
aa(lp446
F0.63828125
aF0.796875
aI920
aa(lp447
F0.6574218749999999
aF0.8171875
aI920
aa(lp448
F0.6632812499999999
aF0.8203125
aI918
aa(lp449
F0.6451562500000001
aF0.8078125
aI928
aa(lp450
F0.619609375
aF0.80390625
aI938
aa(lp451
F0.61234375
aF0.790625
aI930
aa(lp452
F0.6242968750000001
aF0.78203125
aI932
aa(lp453
F0.6383593750000001
aF0.80390625
aI927
aa(lp454
F0.6452343749999999
aF0.82890625
aI913
aa(lp455
F0.6703906250000001
aF0.84375
aI918
aa(lp456
F0.6371875
aF0.846875
aI922
aa(lp457
F0.644296875
aF0.83203125
aI919
aa(lp458
F0.62703125
aF0.82421875
aI920
aa(lp459
F0.645234375
aF0.82421875
aI917
aa(lp460
F0.662109375
aF0.83359375
aI924
aa(lp461
F0.637421875
aF0.81484375
aI915
aa(lp462
F0.62515625
aF0.82734375
aI930
aa(lp463
F0.653671875
aF0.8546875
aI920
aa(lp464
(lp465
F0.22984374999999999
aF0.6859375
aI944
aa(lp466
F0.21296875
aF0.5421875
aI911
aa(lp467
F0.25109375
aF0.5671875
aI913
aa(lp468
F0.2684375
aF0.628125
aI930
aa(lp469
F0.2534375
aF0.559375
aI917
aa(lp470
F0.2778125
aF0.58125
aI929
aa(lp471
F0.24375000000000002
aF0.5625
aI922
aa(lp472
F0.23500000000000001
aF0.65
aI903
aa(lp473
F0.21578125
aF0.4984375
aI922
aa(lp474
F0.21703125
aF0.5484375
aI930
aa(lp475
F0.22499999999999998
aF0.5328125
aI924
aa(lp476
F0.23484375000000002
aF0.5890625
aI911
aa(lp477
F0.22109375
aF0.5859375
aI926
aa(lp478
F0.19015625
aF0.584375
aI930
aa(lp479
F0.21234375
aF0.6578125
aI927
aa(lp480
F0.22453125
aF0.5515625
aI920
aa(lp481
F0.23453124999999997
aF0.546875
aI915
aa(lp482
F0.2359375
aF0.625
aI924
aa(lp483
F0.30375
aF0.665625
aI926
aa(lp484
F0.26953125
aF0.6640625
aI918
aa(lp485
F0.28796875000000005
aF0.6046875
aI918
aa(lp486
F0.284375
aF0.59375
aI928
aa(lp487
F0.2175
aF0.590625
aI920
aa(lp488
F0.230625
aF0.6
aI931
aa(lp489
F0.25656249999999997
aF0.684375
aI915
aa(lp490
F0.2575
aF0.6125
aI934
aa(lp491
F0.23203125000000002
aF0.5703125
aI925
aa(lp492
F0.21625
aF0.603125
aI928
aa(lp493
F0.24453124999999998
aF0.6171875
aI912
aa(lp494
F0.2365625
aF0.603125
aI920
aa(lp495
F0.23281249999999998
aF0.6875
aI924
aa(lp496
F0.25703125
aF0.5859375
aI917
aa(lp497
F0.224375
aF0.50625
aI920
aa(lp498
F0.24671875000000001
aF0.5171875
aI920
aa(lp499
F0.2259375
aF0.521875
aI918
aa(lp500
F0.25984375000000004
aF0.559375
aI928
aa(lp501
F0.2365625
aF0.571875
aI938
aa(lp502
F0.22140624999999997
aF0.5671875
aI930
aa(lp503
F0.24453125
aF0.5234375
aI932
aa(lp504
F0.22734375
aF0.5859375
aI927
aa(lp505
F0.2340625
aF0.6125
aI913
aa(lp506
F0.23578125
aF0.6265625
aI918
aa(lp507
F0.24890625
aF0.5890625
aI922
aa(lp508
F0.280625
aF0.56875
aI919
aa(lp509
F0.244375
aF0.603125
aI920
aa(lp510
F0.23703125
aF0.6296875
aI917
aa(lp511
F0.27328125
aF0.6265625
aI924
aa(lp512
F0.23984375000000002
aF0.6015625
aI915
aa(lp513
F0.24390625000000002
aF0.5765625
aI930
aa(lp514
F0.26109375
aF0.6390625
aI920
aatp515
a((lp516
(lp517
F0.6761718750000001
aF0.87109375
aI938
aa(lp518
F0.62296875
aF0.81015625
aI899
aa(lp519
F0.6409374999999999
aF0.840625
aI923
aa(lp520
F0.6604687499999999
aF0.8640625
aI915
aa(lp521
F0.6525
aF0.803125
aI931
aa(lp522
F0.6265625
aF0.8453125
aI921
aa(lp523
F0.6266406250000001
aF0.81171875
aI921
aa(lp524
F0.657890625
aF0.82734375
aI940
aa(lp525
F0.637890625
aF0.80859375
aI910
aa(lp526
F0.640546875
aF0.80546875
aI929
aa(lp527
F0.6535156249999999
aF0.85546875
aI923
aa(lp528
F0.644296875
aF0.82265625
aI903
aa(lp529
F0.6409375
aF0.81875
aI915
aa(lp530
F0.64015625
aF0.85625
aI919
aa(lp531
F0.6415625
aF0.8578125
aI926
aa(lp532
F0.641640625
aF0.85703125
aI937
aa(lp533
F0.6624218749999999
aF0.846875
aI918
aa(lp534
F0.6690625
aF0.85703125
aI915
aa(lp535
F0.65890625
aF0.85703125
aI917
aa(lp536
F0.6791406249999999
aF0.85703125
aI916
aa(lp537
F0.687265625
aF0.8859375
aI913
aa(lp538
F0.677421875
aF0.85078125
aI898
aa(lp539
F0.682734375
aF0.8765625
aI908
aa(lp540
F0.68421875
aF0.9015625
aI902
aa(lp541
F0.6659375
aF0.8328125
aI925
aa(lp542
F0.63921875
aF0.859375
aI927
aa(lp543
F0.6520312500000001
aF0.83984375
aI928
aa(lp544
F0.6475000000000001
aF0.8453125
aI919
aa(lp545
F0.641796875
aF0.82578125
aI919
aa(lp546
F0.66578125
aF0.82890625
aI931
aa(lp547
F0.656953125
aF0.82109375
aI917
aa(lp548
F0.69453125
aF0.859375
aI929
aa(lp549
F0.6820312500000001
aF0.89140625
aI922
aa(lp550
F0.6456249999999999
aF0.8640625
aI919
aa(lp551
F0.6646875000000001
aF0.86953125
aI920
aa(lp552
F0.6664843750000001
aF0.875
aI912
aa(lp553
F0.6490625
aF0.83828125
aI913
aa(lp554
F0.6609375000000001
aF0.890625
aI921
aa(lp555
F0.672734375
aF0.86640625
aI920
aa(lp556
F0.6728124999999999
aF0.88203125
aI928
aa(lp557
F0.68453125
aF0.8734375
aI922
aa(lp558
F0.6824218750000001
aF0.84921875
aI920
aa(lp559
F0.6888281249999999
aF0.8625
aI910
aa(lp560
F0.7087499999999999
aF0.88125
aI914
aa(lp561
F0.68109375
aF0.8765625
aI919
aa(lp562
F0.692734375
aF0.86171875
aI907
aa(lp563
F0.6950000000000001
aF0.878125
aI911
aa(lp564
F0.674765625
aF0.89296875
aI912
aa(lp565
F0.677734375
aF0.88671875
aI917
aa(lp566
F0.657109375
aF0.8515625
aI906
aa(lp567
(lp568
F0.22921874999999997
aF0.6609375
aI938
aa(lp569
F0.23046875
aF0.6015625
aI899
aa(lp570
F0.28578125
aF0.64375
aI923
aa(lp571
F0.285625
aF0.675
aI915
aa(lp572
F0.265
aF0.56875
aI931
aa(lp573
F0.24593750000000003
aF0.65
aI921
aa(lp574
F0.24203124999999998
aF0.64375
aI921
aa(lp575
F0.275
aF0.609375
aI940
aa(lp576
F0.2759375
aF0.6
aI910
aa(lp577
F0.24703125000000004
aF0.5921875
aI929
aa(lp578
F0.28921874999999997
aF0.6234375
aI923
aa(lp579
F0.23921874999999998
aF0.5921875
aI903
aa(lp580
F0.24859375
aF0.5765625
aI915
aa(lp581
F0.29703125
aF0.7015625
aI919
aa(lp582
F0.27234375
aF0.6203125
aI926
aa(lp583
F0.2865625
aF0.665625
aI937
aa(lp584
F0.29984375
aF0.6578125
aI918
aa(lp585
F0.28203124999999996
aF0.6484375
aI915
aa(lp586
F0.29015625
aF0.6609375
aI917
aa(lp587
F0.32156250000000003
aF0.64375
aI916
aa(lp588
F0.33390625
aF0.7390625
aI913
aa(lp589
F0.34609375000000003
aF0.7109375
aI898
aa(lp590
F0.32921874999999995
aF0.6453125
aI908
aa(lp591
F0.30984375
aF0.7453125
aI902
aa(lp592
F0.2959375
aF0.61875
aI925
aa(lp593
F0.2740625
aF0.68125
aI927
aa(lp594
F0.27
aF0.596875
aI928
aa(lp595
F0.28875
aF0.628125
aI919
aa(lp596
F0.21765625
aF0.5890625
aI919
aa(lp597
F0.28812499999999996
aF0.65
aI931
aa(lp598
F0.29234374999999996
aF0.6234375
aI917
aa(lp599
F0.29187500000000005
aF0.64375
aI929
aa(lp600
F0.28234374999999995
aF0.6921875
aI922
aa(lp601
F0.28546875
aF0.7078125
aI919
aa(lp602
F0.291875
aF0.675
aI920
aa(lp603
F0.2934375
aF0.721875
aI912
aa(lp604
F0.30343749999999997
aF0.653125
aI913
aa(lp605
F0.28734375
aF0.7046875
aI921
aa(lp606
F0.28359375000000003
aF0.6171875
aI920
aa(lp607
F0.2971875
aF0.715625
aI928
aa(lp608
F0.281875
aF0.665625
aI922
aa(lp609
F0.3384375
aF0.6625
aI920
aa(lp610
F0.294375
aF0.603125
aI910
aa(lp611
F0.35031249999999997
aF0.684375
aI914
aa(lp612
F0.28781249999999997
aF0.653125
aI919
aa(lp613
F0.31734375000000004
aF0.6078125
aI907
aa(lp614
F0.3396875
aF0.7296875
aI911
aa(lp615
F0.27703125
aF0.6984375
aI912
aa(lp616
F0.30375
aF0.74375
aI917
aa(lp617
F0.26875000000000004
aF0.625
aI906
aatp618
a((lp619
(lp620
F0.70578125
aF0.8796875
aI953
aa(lp621
F0.61609375
aF0.8328125
aI913
aa(lp622
F0.6442187500000001
aF0.8796875
aI918
aa(lp623
F0.63078125
aF0.82578125
aI912
aa(lp624
F0.617109375
aF0.82890625
aI913
aa(lp625
F0.6121093750000001
aF0.84765625
aI918
aa(lp626
F0.620625
aF0.8171875
aI936
aa(lp627
F0.643359375
aF0.840625
aI929
aa(lp628
F0.621640625
aF0.85390625
aI923
aa(lp629
F0.64375
aF0.828125
aI922
aa(lp630
F0.618671875
aF0.815625
aI936
aa(lp631
F0.638046875
aF0.81640625
aI924
aa(lp632
F0.666875
aF0.84765625
aI934
aa(lp633
F0.666796875
aF0.85546875
aI913
aa(lp634
F0.6936718749999999
aF0.89921875
aI925
aa(lp635
F0.6821875
aF0.85
aI926
aa(lp636
F0.65671875
aF0.8484375
aI926
aa(lp637
F0.6471093750000001
aF0.85078125
aI908
aa(lp638
F0.6611718750000001
aF0.8265625
aI923
aa(lp639
F0.65453125
aF0.87890625
aI914
aa(lp640
F0.652578125
aF0.865625
aI919
aa(lp641
F0.6814843749999999
aF0.85078125
aI902
aa(lp642
F0.67125
aF0.85
aI912
aa(lp643
F0.643125
aF0.82421875
aI921
aa(lp644
F0.643828125
aF0.81953125
aI910
aa(lp645
F0.6321875
aF0.834375
aI920
aa(lp646
F0.637578125
aF0.83515625
aI922
aa(lp647
F0.6276562499999999
aF0.82578125
aI908
aa(lp648
F0.61078125
aF0.80625
aI908
aa(lp649
F0.649765625
aF0.81484375
aI918
aa(lp650
F0.65046875
aF0.81640625
aI921
aa(lp651
F0.64671875
aF0.82265625
aI919
aa(lp652
F0.658046875
aF0.8265625
aI921
aa(lp653
F0.653828125
aF0.82890625
aI921
aa(lp654
F0.631171875
aF0.82265625
aI918
aa(lp655
F0.6725
aF0.84609375
aI924
aa(lp656
F0.6740625
aF0.8375
aI926
aa(lp657
F0.6391406250000001
aF0.8203125
aI897
aa(lp658
F0.64515625
aF0.8453125
aI917
aa(lp659
F0.6533593750000001
aF0.83515625
aI924
aa(lp660
F0.6490625
aF0.83828125
aI916
aa(lp661
F0.633359375
aF0.84765625
aI925
aa(lp662
F0.6392968750000001
aF0.8265625
aI922
aa(lp663
F0.648515625
aF0.83515625
aI923
aa(lp664
F0.637265625
aF0.82265625
aI925
aa(lp665
F0.646328125
aF0.81796875
aI919
aa(lp666
F0.6439062499999999
aF0.8578125
aI929
aa(lp667
F0.6616406249999999
aF0.84453125
aI910
aa(lp668
F0.666875
aF0.83125
aI911
aa(lp669
F0.65390625
aF0.8515625
aI910
aa(lp670
(lp671
F0.25406249999999997
aF0.69375
aI953
aa(lp672
F0.24593750000000003
aF0.603125
aI913
aa(lp673
F0.2671875
aF0.703125
aI918
aa(lp674
F0.215625
aF0.578125
aI912
aa(lp675
F0.24234375
aF0.6546875
aI913
aa(lp676
F0.25953125
aF0.6390625
aI918
aa(lp677
F0.24343750000000003
aF0.6125
aI936
aa(lp678
F0.24265625000000002
aF0.6515625
aI929
aa(lp679
F0.20859375
aF0.6484375
aI923
aa(lp680
F0.23640625000000004
aF0.5890625
aI922
aa(lp681
F0.241875
aF0.6125
aI936
aa(lp682
F0.2259375
aF0.56875
aI924
aa(lp683
F0.284375
aF0.671875
aI934
aa(lp684
F0.26390625
aF0.6421875
aI913
aa(lp685
F0.28328125000000004
aF0.6828125
aI925
aa(lp686
F0.23640625
aF0.6046875
aI926
aa(lp687
F0.23093750000000002
aF0.6125
aI926
aa(lp688
F0.24937499999999999
aF0.6625
aI908
aa(lp689
F0.24890625
aF0.6203125
aI923
aa(lp690
F0.29703125
aF0.7015625
aI914
aa(lp691
F0.29078125
aF0.6546875
aI919
aa(lp692
F0.26968749999999997
aF0.6
aI902
aa(lp693
F0.27234375
aF0.6203125
aI912
aa(lp694
F0.23453125000000002
aF0.6109375
aI921
aa(lp695
F0.27078125000000003
aF0.6515625
aI910
aa(lp696
F0.21703125000000004
aF0.6109375
aI920
aa(lp697
F0.2053125
aF0.634375
aI922
aa(lp698
F0.22609374999999998
aF0.646875
aI908
aa(lp699
F0.2159375
aF0.621875
aI908
aa(lp700
F0.27765625
aF0.6296875
aI918
aa(lp701
F0.25609375
aF0.5640625
aI921
aa(lp702
F0.21484375
aF0.5390625
aI919
aa(lp703
F0.25265625
aF0.5359375
aI921
aa(lp704
F0.2840625
aF0.6125
aI921
aa(lp705
F0.23125
aF0.578125
aI918
aa(lp706
F0.31062500000000004
aF0.64375
aI924
aa(lp707
F0.29500000000000004
aF0.58125
aI926
aa(lp708
F0.25359375
aF0.5734375
aI897
aa(lp709
F0.2515625
aF0.578125
aI917
aa(lp710
F0.27859375000000003
aF0.6046875
aI924
aa(lp711
F0.28250000000000003
aF0.6125
aI916
aa(lp712
F0.26890625
aF0.6078125
aI925
aa(lp713
F0.27390625
aF0.6375
aI922
aa(lp714
F0.24609375
aF0.6328125
aI923
aa(lp715
F0.24125000000000002
aF0.5875
aI925
aa(lp716
F0.2821875
aF0.6
aI919
aa(lp717
F0.31140625
aF0.6359375
aI929
aa(lp718
F0.30390625000000004
aF0.6328125
aI910
aa(lp719
F0.31890624999999995
aF0.6390625
aI911
aa(lp720
F0.30765625
aF0.7046875
aI910
aatp721
a((lp722
(lp723
F0.658671875
aF0.88984375
aI957
aa(lp724
F0.5950000000000001
aF0.778125
aI915
aa(lp725
F0.61421875
aF0.80390625
aI912
aa(lp726
F0.630703125
aF0.83359375
aI907
aa(lp727
F0.61921875
aF0.8078125
aI919
aa(lp728
F0.626953125
aF0.83203125
aI941
aa(lp729
F0.6321874999999999
aF0.81875
aI917
aa(lp730
F0.6228125
aF0.828125
aI931
aa(lp731
F0.64859375
aF0.85
aI933
aa(lp732
F0.648203125
aF0.83046875
aI918
aa(lp733
F0.64703125
aF0.865625
aI921
aa(lp734
F0.6400781249999999
aF0.81796875
aI913
aa(lp735
F0.6478125
aF0.83515625
aI914
aa(lp736
F0.660234375
aF0.84375
aI925
aa(lp737
F0.6871875000000001
aF0.878125
aI922
aa(lp738
F0.656484375
aF0.8578125
aI914
aa(lp739
F0.6571874999999999
aF0.8453125
aI925
aa(lp740
F0.66328125
aF0.84453125
aI930
aa(lp741
F0.63484375
aF0.8234375
aI929
aa(lp742
F0.6514062500000001
aF0.8453125
aI929
aa(lp743
F0.645859375
aF0.81484375
aI922
aa(lp744
F0.663203125
aF0.83828125
aI920
aa(lp745
F0.6471875
aF0.8484375
aI920
aa(lp746
F0.627890625
aF0.83828125
aI922
aa(lp747
F0.611328125
aF0.8171875
aI913
aa(lp748
F0.645625
aF0.84921875
aI921
aa(lp749
F0.64140625
aF0.8203125
aI913
aa(lp750
F0.626171875
aF0.83203125
aI924
aa(lp751
F0.6332812500000001
aF0.8625
aI905
aa(lp752
F0.6446875
aF0.84453125
aI912
aa(lp753
F0.65390625
aF0.821875
aI915
aa(lp754
F0.668828125
aF0.875
aI917
aa(lp755
F0.643125
aF0.84375
aI920
aa(lp756
F0.6498437499999999
aF0.85390625
aI918
aa(lp757
F0.6613281249999999
aF0.85625
aI920
aa(lp758
F0.653515625
aF0.85078125
aI914
aa(lp759
F0.6609375
aF0.85390625
aI911
aa(lp760
F0.63671875
aF0.83671875
aI919
aa(lp761
F0.6676562500000001
aF0.83984375
aI920
aa(lp762
F0.69140625
aF0.828125
aI909
aa(lp763
F0.6985156250000001
aF0.859375
aI920
aa(lp764
F0.6900781250000001
aF0.85703125
aI919
aa(lp765
F0.64203125
aF0.8609375
aI914
aa(lp766
F0.6557812499999999
aF0.8515625
aI914
aa(lp767
F0.67875
aF0.86171875
aI921
aa(lp768
F0.678046875
aF0.82109375
aI930
aa(lp769
F0.629375
aF0.81640625
aI918
aa(lp770
F0.613046875
aF0.83125
aI924
aa(lp771
F0.6331249999999999
aF0.82578125
aI928
aa(lp772
F0.610546875
aF0.7859375
aI922
aa(lp773
(lp774
F0.21734375
aF0.7328125
aI957
aa(lp775
F0.21234375000000003
aF0.5484375
aI915
aa(lp776
F0.2215625
aF0.50625
aI912
aa(lp777
F0.22703125000000002
aF0.6203125
aI907
aa(lp778
F0.20890625
aF0.5515625
aI919
aa(lp779
F0.24171875
aF0.6296875
aI941
aa(lp780
F0.21406250000000002
aF0.59375
aI917
aa(lp781
F0.23875000000000002
aF0.596875
aI931
aa(lp782
F0.24265625000000002
aF0.6203125
aI933
aa(lp783
F0.23078125
aF0.5671875
aI918
aa(lp784
F0.2421875
aF0.671875
aI921
aa(lp785
F0.2603125
aF0.6
aI913
aa(lp786
F0.2709375
aF0.5875
aI914
aa(lp787
F0.276875
aF0.6375
aI925
aa(lp788
F0.32656250000000003
aF0.671875
aI922
aa(lp789
F0.2659375
aF0.684375
aI914
aa(lp790
F0.2428125
aF0.634375
aI925
aa(lp791
F0.2703125
aF0.640625
aI930
aa(lp792
F0.22796874999999997
aF0.55
aI929
aa(lp793
F0.26546875000000003
aF0.6421875
aI929
aa(lp794
F0.263125
aF0.5875
aI922
aa(lp795
F0.24656250000000002
aF0.565625
aI920
aa(lp796
F0.2259375
aF0.63125
aI920
aa(lp797
F0.23875000000000002
aF0.628125
aI922
aa(lp798
F0.2209375
aF0.571875
aI913
aa(lp799
F0.263125
aF0.665625
aI921
aa(lp800
F0.23781249999999998
aF0.60625
aI913
aa(lp801
F0.23
aF0.653125
aI924
aa(lp802
F0.23718750000000002
aF0.675
aI905
aa(lp803
F0.23921874999999998
aF0.6078125
aI912
aa(lp804
F0.23171875
aF0.5734375
aI915
aa(lp805
F0.29453124999999997
aF0.6640625
aI917
aa(lp806
F0.30203125000000003
aF0.6828125
aI920
aa(lp807
F0.30390625000000004
aF0.68125
aI918
aa(lp808
F0.29875
aF0.7
aI920
aa(lp809
F0.28265625
aF0.6265625
aI914
aa(lp810
F0.2775
aF0.65
aI911
aa(lp811
F0.2953125
aF0.65625
aI919
aa(lp812
F0.2990625
aF0.6046875
aI920
aa(lp813
F0.301875
aF0.54375
aI909
aa(lp814
F0.316875
aF0.64375
aI920
aa(lp815
F0.3365625
aF0.65
aI919
aa(lp816
F0.32203125
aF0.7328125
aI914
aa(lp817
F0.30078125
aF0.6640625
aI914
aa(lp818
F0.29203125
aF0.6734375
aI921
aa(lp819
F0.29140625
aF0.6015625
aI930
aa(lp820
F0.25953125
aF0.6078125
aI918
aa(lp821
F0.234375
aF0.5953125
aI924
aa(lp822
F0.2346875
aF0.590625
aI928
aa(lp823
F0.220625
aF0.49687499999999996
aI922
aatp824
a((lp825
(lp826
F0.683359375
aF0.87734375
aI945
aa(lp827
F0.6203906250000001
aF0.83671875
aI905
aa(lp828
F0.6446875
aF0.80390625
aI933
aa(lp829
F0.6662499999999999
aF0.8546875
aI916
aa(lp830
F0.653515625
aF0.84921875
aI921
aa(lp831
F0.6353906250000001
aF0.84140625
aI918
aa(lp832
F0.64640625
aF0.840625
aI926
aa(lp833
F0.6471093750000001
aF0.8421875
aI920
aa(lp834
F0.686796875
aF0.86640625
aI915
aa(lp835
F0.6764843749999999
aF0.85390625
aI929
aa(lp836
F0.663046875
aF0.83046875
aI909
aa(lp837
F0.691015625
aF0.87890625
aI925
aa(lp838
F0.66125
aF0.840625
aI926
aa(lp839
F0.677734375
aF0.85546875
aI912
aa(lp840
F0.6748437500000001
aF0.86171875
aI929
aa(lp841
F0.6581249999999998
aF0.8640625
aI913
aa(lp842
F0.666015625
aF0.8328125
aI914
aa(lp843
F0.664296875
aF0.85703125
aI921
aa(lp844
F0.6671875
aF0.82890625
aI912
aa(lp845
F0.6765625
aF0.86953125
aI921
aa(lp846
F0.668359375
aF0.88671875
aI912
aa(lp847
F0.688046875
aF0.89296875
aI921
aa(lp848
F0.641640625
aF0.85703125
aI919
aa(lp849
F0.659296875
aF0.8140625
aI915
aa(lp850
F0.6637500000000001
aF0.84140625
aI931
aa(lp851
F0.6535937500000001
aF0.81796875
aI914
aa(lp852
F0.6775781249999999
aF0.85
aI910
aa(lp853
F0.6318750000000001
aF0.8234375
aI910
aa(lp854
F0.644921875
aF0.8171875
aI923
aa(lp855
F0.6291406250000001
aF0.82578125
aI925
aa(lp856
F0.648359375
aF0.81328125
aI928
aa(lp857
F0.6428906249999999
aF0.8140625
aI917
aa(lp858
F0.6460156249999999
aF0.8296875
aI932
aa(lp859
F0.6500781250000001
aF0.890625
aI919
aa(lp860
F0.63859375
aF0.85
aI922
aa(lp861
F0.647265625
aF0.82421875
aI924
aa(lp862
F0.644921875
aF0.8640625
aI912
aa(lp863
F0.65203125
aF0.8703125
aI915
aa(lp864
F0.6457812500000001
aF0.83984375
aI922
aa(lp865
F0.658828125
aF0.865625
aI925
aa(lp866
F0.66203125
aF0.85703125
aI908
aa(lp867
F0.66609375
aF0.8390625
aI919
aa(lp868
F0.6624218749999999
aF0.8453125
aI926
aa(lp869
F0.67171875
aF0.85390625
aI921
aa(lp870
F0.6520312500000001
aF0.82421875
aI909
aa(lp871
F0.6801562499999999
aF0.84921875
aI921
aa(lp872
F0.6511718750000001
aF0.809375
aI919
aa(lp873
F0.647890625
aF0.80390625
aI922
aa(lp874
F0.6534375
aF0.8328125
aI907
aa(lp875
F0.6754687500000001
aF0.8625
aI921
aa(lp876
(lp877
F0.21671875000000002
aF0.7078125
aI945
aa(lp878
F0.181875
aF0.634375
aI905
aa(lp879
F0.21000000000000002
aF0.55625
aI933
aa(lp880
F0.26515625
aF0.6296875
aI916
aa(lp881
F0.25203125
aF0.6359375
aI921
aa(lp882
F0.2503125
aF0.621875
aI918
aa(lp883
F0.2521875
aF0.634375
aI926
aa(lp884
F0.28953125
aF0.6515625
aI920
aa(lp885
F0.31156249999999996
aF0.68125
aI915
aa(lp886
F0.29046875
aF0.6265625
aI929
aa(lp887
F0.28921874999999997
aF0.6390625
aI909
aa(lp888
F0.306875
aF0.665625
aI925
aa(lp889
F0.28171875
aF0.5890625
aI926
aa(lp890
F0.32203125
aF0.6703125
aI912
aa(lp891
F0.28515625
aF0.6328125
aI929
aa(lp892
F0.28921875
aF0.6859375
aI913
aa(lp893
F0.25171875
aF0.6234375
aI914
aa(lp894
F0.24765625
aF0.6328125
aI921
aa(lp895
F0.24890625000000002
aF0.5265625
aI912
aa(lp896
F0.32312500000000005
aF0.64375
aI921
aa(lp897
F0.29578125000000005
aF0.7296875
aI912
aa(lp898
F0.3207812500000001
aF0.6828125
aI921
aa(lp899
F0.27375
aF0.684375
aI919
aa(lp900
F0.274375
aF0.584375
aI915
aa(lp901
F0.28281249999999997
aF0.65625
aI931
aa(lp902
F0.279375
aF0.6125
aI914
aa(lp903
F0.32359374999999996
aF0.6234375
aI910
aa(lp904
F0.27296875
aF0.615625
aI910
aa(lp905
F0.24171874999999998
aF0.5515625
aI923
aa(lp906
F0.24500000000000002
aF0.6125
aI925
aa(lp907
F0.203125
aF0.578125
aI928
aa(lp908
F0.2246875
aF0.58125
aI917
aa(lp909
F0.22703125000000002
aF0.5890625
aI932
aa(lp910
F0.23124999999999998
aF0.6875
aI919
aa(lp911
F0.26265625
aF0.6234375
aI922
aa(lp912
F0.24578125
aF0.6203125
aI924
aa(lp913
F0.25359375
aF0.6671875
aI912
aa(lp914
F0.24890625
aF0.6359375
aI915
aa(lp915
F0.264375
aF0.6078125
aI922
aa(lp916
F0.27921874999999996
aF0.6765625
aI925
aa(lp917
F0.28750000000000003
aF0.640625
aI908
aa(lp918
F0.2915625
aF0.63125
aI919
aa(lp919
F0.28234375
aF0.6296875
aI926
aa(lp920
F0.28312499999999996
aF0.6375
aI921
aa(lp921
F0.2409375
aF0.590625
aI909
aa(lp922
F0.31062500000000004
aF0.6453125
aI921
aa(lp923
F0.24640625
aF0.521875
aI919
aa(lp924
F0.25
aF0.5
aI922
aa(lp925
F0.26937500000000003
aF0.634375
aI907
aa(lp926
F0.30640625
aF0.6546875
aI921
aatp927
a((lp928
(lp929
F0.643984375
aF0.84140625
aI941
aa(lp930
F0.6165625
aF0.79609375
aI910
aa(lp931
F0.635703125
aF0.8390625
aI931
aa(lp932
F0.64203125
aF0.8296875
aI928
aa(lp933
F0.628828125
aF0.821875
aI923
aa(lp934
F0.6182031250000001
aF0.8265625
aI937
aa(lp935
F0.661484375
aF0.83046875
aI927
aa(lp936
F0.6680468749999999
aF0.8671875
aI933
aa(lp937
F0.675703125
aF0.85234375
aI920
aa(lp938
F0.6540625
aF0.8515625
aI910
aa(lp939
F0.6719531249999999
aF0.86640625
aI921
aa(lp940
F0.68078125
aF0.88984375
aI912
aa(lp941
F0.6995312499999999
aF0.903125
aI902
aa(lp942
F0.6936718749999999
aF0.8765625
aI917
aa(lp943
F0.7033593750000001
aF0.86640625
aI915
aa(lp944
F0.69671875
aF0.8609375
aI895
aa(lp945
F0.6749999999999999
aF0.875
aI906
aa(lp946
F0.6905468749999999
aF0.86875
aI925
aa(lp947
F0.6766406250000001
aF0.8609375
aI912
aa(lp948
F0.67421875
aF0.859375
aI918
aa(lp949
F0.636640625
aF0.82265625
aI920
aa(lp950
F0.6492187500000001
aF0.81484375
aI912
aa(lp951
F0.6549999999999999
aF0.85
aI917
aa(lp952
F0.6901562499999999
aF0.88828125
aI917
aa(lp953
F0.6777343750000001
aF0.91015625
aI905
aa(lp954
F0.6674999999999999
aF0.8640625
aI895
aa(lp955
F0.6921875
aF0.875
aI928
aa(lp956
F0.6666406250000001
aF0.85
aI923
aa(lp957
F0.691015625
aF0.88671875
aI908
aa(lp958
F0.67625
aF0.8625
aI897
aa(lp959
F0.679296875
aF0.86328125
aI918
aa(lp960
F0.6815625
aF0.8796875
aI917
aa(lp961
F0.6668750000000001
aF0.8640625
aI922
aa(lp962
F0.66625
aF0.86171875
aI911
aa(lp963
F0.64625
aF0.85
aI927
aa(lp964
F0.65515625
aF0.83125
aI920
aa(lp965
F0.6520312500000001
aF0.83125
aI916
aa(lp966
F0.6162500000000001
aF0.80703125
aI917
aa(lp967
F0.6279687500000001
aF0.80625
aI912
aa(lp968
F0.6242968750000001
aF0.8046875
aI915
aa(lp969
F0.6177343750000001
aF0.83046875
aI929
aa(lp970
F0.628203125
aF0.82890625
aI910
aa(lp971
F0.636015625
aF0.8203125
aI920
aa(lp972
F0.6657031250000001
aF0.81953125
aI925
aa(lp973
F0.653203125
aF0.81328125
aI920
aa(lp974
F0.640703125
aF0.84453125
aI928
aa(lp975
F0.629609375
aF0.81328125
aI916
aa(lp976
F0.634375
aF0.828125
aI927
aa(lp977
F0.6332031250000001
aF0.80859375
aI925
aa(lp978
F0.64703125
aF0.865625
aI939
aa(lp979
(lp980
F0.22375
aF0.7
aI941
aa(lp981
F0.21109375
aF0.5609375
aI910
aa(lp982
F0.2265625
aF0.65625
aI931
aa(lp983
F0.2778125
aF0.565625
aI928
aa(lp984
F0.2396875
aF0.571875
aI923
aa(lp985
F0.20875
aF0.584375
aI937
aa(lp986
F0.270625
aF0.621875
aI927
aa(lp987
F0.29062499999999997
aF0.703125
aI933
aa(lp988
F0.32171875000000005
aF0.6578125
aI920
aa(lp989
F0.31406249999999997
aF0.7046875
aI910
aa(lp990
F0.30859375
aF0.6953125
aI921
aa(lp991
F0.324375
aF0.7125
aI912
aa(lp992
F0.34890625000000003
aF0.7296875
aI902
aa(lp993
F0.35921875000000003
aF0.6765625
aI917
aa(lp994
F0.33828125000000003
aF0.684375
aI915
aa(lp995
F0.33749999999999997
aF0.640625
aI895
aa(lp996
F0.27656250000000004
aF0.625
aI906
aa(lp997
F0.28312499999999996
aF0.6375
aI925
aa(lp998
F0.301875
aF0.6390625
aI912
aa(lp999
F0.30328124999999995
aF0.6390625
aI918
aa(lp1000
F0.28125
aF0.59375
aI920
aa(lp1001
F0.27328125000000003
aF0.5640625
aI912
aa(lp1002
F0.270625
aF0.6375
aI917
aa(lp1003
F0.301875
aF0.746875
aI917
aa(lp1004
F0.32015625000000003
aF0.7359375
aI905
aa(lp1005
F0.2975
aF0.634375
aI895
aa(lp1006
F0.31171875000000004
aF0.6328125
aI928
aa(lp1007
F0.30734374999999997
aF0.6453125
aI923
aa(lp1008
F0.30890625
aF0.6765625
aI908
aa(lp1009
F0.3259375
aF0.6625
aI897
aa(lp1010
F0.31109375
aF0.6546875
aI918
aa(lp1011
F0.32812500000000006
aF0.671875
aI917
aa(lp1012
F0.34125
aF0.7125
aI922
aa(lp1013
F0.27578125
aF0.6328125
aI911
aa(lp1014
F0.28765624999999995
aF0.6234375
aI927
aa(lp1015
F0.24656250000000002
aF0.628125
aI920
aa(lp1016
F0.23421875
aF0.6109375
aI916
aa(lp1017
F0.2203125
aF0.609375
aI917
aa(lp1018
F0.20593750000000002
aF0.51875
aI912
aa(lp1019
F0.22328125000000001
aF0.5484375
aI915
aa(lp1020
F0.2315625
aF0.590625
aI929
aa(lp1021
F0.234375
aF0.671875
aI910
aa(lp1022
F0.22703125
aF0.6046875
aI920
aa(lp1023
F0.24546875
aF0.5609375
aI925
aa(lp1024
F0.23484375000000002
aF0.5578125
aI920
aa(lp1025
F0.23859375000000002
aF0.6140625
aI928
aa(lp1026
F0.24796875000000002
aF0.553125
aI916
aa(lp1027
F0.24031249999999998
aF0.58125
aI927
aa(lp1028
F0.25234375000000003
aF0.6171875
aI925
aa(lp1029
F0.25187499999999996
aF0.746875
aI939
aatp1030
a((lp1031
(lp1032
F0.6843750000000001
aF0.890625
aI948
aa(lp1033
F0.603203125
aF0.7984375
aI920
aa(lp1034
F0.6053124999999999
aF0.7921875
aI919
aa(lp1035
F0.6425
aF0.79375
aI922
aa(lp1036
F0.64859375
aF0.82890625
aI927
aa(lp1037
F0.61859375
aF0.815625
aI920
aa(lp1038
F0.6558593749999999
aF0.840625
aI926
aa(lp1039
F0.63390625
aF0.80234375
aI926
aa(lp1040
F0.6315624999999999
aF0.8328125
aI917
aa(lp1041
F0.6708593749999999
aF0.8625
aI917
aa(lp1042
F0.658671875
aF0.84609375
aI910
aa(lp1043
F0.6797656249999999
aF0.86875
aI933
aa(lp1044
F0.65046875
aF0.8109375
aI908
aa(lp1045
F0.6464062500000001
aF0.85703125
aI925
aa(lp1046
F0.657734375
aF0.87734375
aI923
aa(lp1047
F0.6917968750000001
aF0.87109375
aI922
aa(lp1048
F0.683046875
aF0.86640625
aI916
aa(lp1049
F0.679296875
aF0.8640625
aI911
aa(lp1050
F0.685078125
aF0.88359375
aI929
aa(lp1051
F0.6677343749999999
aF0.82265625
aI910
aa(lp1052
F0.671171875
aF0.87578125
aI920
aa(lp1053
F0.656640625
aF0.85546875
aI924
aa(lp1054
F0.694921875
aF0.8875
aI925
aa(lp1055
F0.640546875
aF0.82890625
aI907
aa(lp1056
F0.642734375
aF0.86171875
aI911
aa(lp1057
F0.62671875
aF0.8515625
aI913
aa(lp1058
F0.655859375
aF0.86328125
aI924
aa(lp1059
F0.6612499999999999
aF0.8484375
aI918
aa(lp1060
F0.644765625
aF0.8578125
aI920
aa(lp1061
F0.66859375
aF0.85625
aI911
aa(lp1062
F0.6515624999999999
aF0.859375
aI914
aa(lp1063
F0.640234375
aF0.83984375
aI909
aa(lp1064
F0.6199218750000001
aF0.84765625
aI911
aa(lp1065
F0.634296875
aF0.86015625
aI923
aa(lp1066
F0.6596875
aF0.8640625
aI907
aa(lp1067
F0.6853125
aF0.859375
aI935
aa(lp1068
F0.656640625
aF0.82578125
aI924
aa(lp1069
F0.65140625
aF0.8296875
aI912
aa(lp1070
F0.6485937499999999
aF0.85859375
aI921
aa(lp1071
F0.637109375
aF0.8484375
aI918
aa(lp1072
F0.6125781250000001
aF0.84296875
aI922
aa(lp1073
F0.630390625
aF0.7984375
aI917
aa(lp1074
F0.622890625
aF0.78671875
aI921
aa(lp1075
F0.628671875
aF0.815625
aI923
aa(lp1076
F0.651015625
aF0.87265625
aI924
aa(lp1077
F0.640390625
aF0.8390625
aI927
aa(lp1078
F0.643984375
aF0.84296875
aI904
aa(lp1079
F0.660625
aF0.871875
aI917
aa(lp1080
F0.655546875
aF0.87421875
aI914
aa(lp1081
F0.691953125
aF0.846875
aI922
aa(lp1082
(lp1083
F0.2503125
aF0.715625
aI948
aa(lp1084
F0.2340625
aF0.553125
aI920
aa(lp1085
F0.238125
aF0.540625
aI919
aa(lp1086
F0.22499999999999998
aF0.515625
aI922
aa(lp1087
F0.20640625
aF0.5921875
aI927
aa(lp1088
F0.21375000000000002
aF0.6125
aI920
aa(lp1089
F0.2390625
aF0.6421875
aI926
aa(lp1090
F0.22890625
aF0.5703125
aI926
aa(lp1091
F0.23828125
aF0.5703125
aI917
aa(lp1092
F0.30374999999999996
aF0.68125
aI917
aa(lp1093
F0.25859375
aF0.603125
aI910
aa(lp1094
F0.258125
aF0.621875
aI933
aa(lp1095
F0.261875
aF0.5875
aI908
aa(lp1096
F0.2846875
aF0.653125
aI925
aa(lp1097
F0.2884375
aF0.709375
aI923
aa(lp1098
F0.28515625
aF0.6328125
aI922
aa(lp1099
F0.271875
aF0.625
aI916
aa(lp1100
F0.27249999999999996
aF0.634375
aI911
aa(lp1101
F0.29718749999999994
aF0.653125
aI929
aa(lp1102
F0.289375
aF0.575
aI910
aa(lp1103
F0.28734375
aF0.6265625
aI920
aa(lp1104
F0.28890625000000003
aF0.6109375
aI924
aa(lp1105
F0.27046875
aF0.6390625
aI925
aa(lp1106
F0.2796875
aF0.625
aI907
aa(lp1107
F0.253125
aF0.703125
aI911
aa(lp1108
F0.29031250000000003
aF0.690625
aI913
aa(lp1109
F0.26015625
aF0.6328125
aI924
aa(lp1110
F0.29062499999999997
aF0.65625
aI918
aa(lp1111
F0.28859375
aF0.6921875
aI920
aa(lp1112
F0.2728125
aF0.6625
aI911
aa(lp1113
F0.25640625
aF0.6546875
aI914
aa(lp1114
F0.25328125
aF0.6546875
aI909
aa(lp1115
F0.25812500000000005
aF0.715625
aI911
aa(lp1116
F0.23406249999999998
aF0.64375
aI923
aa(lp1117
F0.27328125000000003
aF0.6734375
aI907
aa(lp1118
F0.2515625
aF0.609375
aI935
aa(lp1119
F0.27515625
aF0.5921875
aI924
aa(lp1120
F0.24703125000000004
aF0.5921875
aI912
aa(lp1121
F0.20937499999999998
aF0.65625
aI921
aa(lp1122
F0.229375
aF0.628125
aI918
aa(lp1123
F0.1971875
aF0.653125
aI922
aa(lp1124
F0.21015625
aF0.5390625
aI917
aa(lp1125
F0.2271875
aF0.525
aI921
aa(lp1126
F0.240625
aF0.546875
aI923
aa(lp1127
F0.269375
aF0.759375
aI924
aa(lp1128
F0.2390625
aF0.609375
aI927
aa(lp1129
F0.25109375
aF0.6296875
aI904
aa(lp1130
F0.28343749999999995
aF0.6671875
aI917
aa(lp1131
F0.28015625
aF0.6515625
aI914
aa(lp1132
F0.26796875
aF0.5859375
aI922
aatp1133
a((lp1134
(lp1135
F0.668359375
aF0.8875
aI949
aa(lp1136
F0.608828125
aF0.8109375
aI927
aa(lp1137
F0.59015625
aF0.803125
aI917
aa(lp1138
F0.6238281250000001
aF0.82421875
aI902
aa(lp1139
F0.637734375
aF0.81875
aI919
aa(lp1140
F0.630625
aF0.8125
aI918
aa(lp1141
F0.6404687499999999
aF0.8296875
aI931
aa(lp1142
F0.629453125
aF0.82265625
aI913
aa(lp1143
F0.61578125
aF0.7796875
aI927
aa(lp1144
F0.6450781250000001
aF0.83046875
aI925
aa(lp1145
F0.645546875
aF0.85
aI915
aa(lp1146
F0.6226562499999999
aF0.8203125
aI928
aa(lp1147
F0.62
aF0.8234375
aI929
aa(lp1148
F0.636015625
aF0.81171875
aI919
aa(lp1149
F0.64015625
aF0.81796875
aI930
aa(lp1150
F0.6435156249999999
aF0.8078125
aI915
aa(lp1151
F0.6496093749999999
aF0.85703125
aI919
aa(lp1152
F0.63765625
aF0.840625
aI912
aa(lp1153
F0.633671875
aF0.85078125
aI895
aa(lp1154
F0.6298437499999999
aF0.8109375
aI932
aa(lp1155
F0.6407031249999999
aF0.78828125
aI919
aa(lp1156
F0.63453125
aF0.8421875
aI913
aa(lp1157
F0.63546875
aF0.84140625
aI924
aa(lp1158
F0.668359375
aF0.85703125
aI927
aa(lp1159
F0.6716406249999999
aF0.8625
aI929
aa(lp1160
F0.66984375
aF0.8640625
aI921
aa(lp1161
F0.672265625
aF0.84765625
aI912
aa(lp1162
F0.6520312500000001
aF0.8078125
aI923
aa(lp1163
F0.666875
aF0.846875
aI918
aa(lp1164
F0.6459375
aF0.8453125
aI919
aa(lp1165
F0.6422656250000001
aF0.82109375
aI925
aa(lp1166
F0.623984375
aF0.846875
aI932
aa(lp1167
F0.63234375
aF0.8203125
aI911
aa(lp1168
F0.647421875
aF0.83046875
aI921
aa(lp1169
F0.69171875
aF0.8171875
aI918
aa(lp1170
F0.66453125
aF0.8234375
aI914
aa(lp1171
F0.6432812499999999
aF0.86640625
aI910
aa(lp1172
F0.666484375
aF0.8671875
aI913
aa(lp1173
F0.68140625
aF0.86640625
aI923
aa(lp1174
F0.652265625
aF0.83671875
aI924
aa(lp1175
F0.635234375
aF0.80625
aI915
aa(lp1176
F0.610390625
aF0.7953125
aI917
aa(lp1177
F0.631484375
aF0.82578125
aI937
aa(lp1178
F0.609453125
aF0.8375
aI918
aa(lp1179
F0.6500781250000001
aF0.83671875
aI925
aa(lp1180
F0.623515625
aF0.82109375
aI924
aa(lp1181
F0.64640625
aF0.8484375
aI901
aa(lp1182
F0.6385937500000001
aF0.81875
aI918
aa(lp1183
F0.65703125
aF0.8828125
aI916
aa(lp1184
F0.6385937500000001
aF0.84140625
aI909
aa(lp1185
(lp1186
F0.2721875
aF0.715625
aI949
aa(lp1187
F0.22000000000000003
aF0.55
aI927
aa(lp1188
F0.22015625
aF0.5640625
aI917
aa(lp1189
F0.2346875
aF0.575
aI902
aa(lp1190
F0.22999999999999998
aF0.621875
aI919
aa(lp1191
F0.22890624999999998
aF0.5390625
aI918
aa(lp1192
F0.23921875
aF0.6390625
aI931
aa(lp1193
F0.23312499999999997
aF0.575
aI913
aa(lp1194
F0.22171875000000002
aF0.5640625
aI927
aa(lp1195
F0.22874999999999998
aF0.55625
aI925
aa(lp1196
F0.2646875
aF0.65
aI915
aa(lp1197
F0.25484375
aF0.5765625
aI928
aa(lp1198
F0.2415625
aF0.6
aI929
aa(lp1199
F0.22578125
aF0.5546875
aI919
aa(lp1200
F0.23593750000000002
aF0.5625
aI930
aa(lp1201
F0.2521875
aF0.55625
aI915
aa(lp1202
F0.27984375000000006
aF0.6890625
aI919
aa(lp1203
F0.26546875000000003
aF0.5984375
aI912
aa(lp1204
F0.2303125
aF0.61875
aI895
aa(lp1205
F0.23234375
aF0.5828125
aI932
aa(lp1206
F0.2240625
aF0.540625
aI919
aa(lp1207
F0.2359375
aF0.625
aI913
aa(lp1208
F0.23984375
aF0.6328125
aI924
aa(lp1209
F0.30046875
aF0.6265625
aI927
aa(lp1210
F0.29890625
aF0.6984375
aI929
aa(lp1211
F0.27359374999999997
aF0.6546875
aI921
aa(lp1212
F0.2978125
aF0.584375
aI912
aa(lp1213
F0.25671875
aF0.5734375
aI923
aa(lp1214
F0.25062500000000004
aF0.603125
aI918
aa(lp1215
F0.24609375
aF0.6328125
aI919
aa(lp1216
F0.24421874999999998
aF0.6203125
aI925
aa(lp1217
F0.21046874999999998
aF0.5984375
aI932
aa(lp1218
F0.24359375
aF0.6
aI911
aa(lp1219
F0.2628125
aF0.66875
aI921
aa(lp1220
F0.27578125
aF0.5859375
aI918
aa(lp1221
F0.22890625
aF0.6015625
aI914
aa(lp1222
F0.2453125
aF0.6875
aI910
aa(lp1223
F0.2790625
aF0.6625
aI913
aa(lp1224
F0.28984375
aF0.6484375
aI923
aa(lp1225
F0.26734375
aF0.6390625
aI924
aa(lp1226
F0.23078125
aF0.5515625
aI915
aa(lp1227
F0.24921875000000002
aF0.6015625
aI917
aa(lp1228
F0.2215625
aF0.565625
aI937
aa(lp1229
F0.22390625
aF0.6046875
aI918
aa(lp1230
F0.2753125
aF0.6234375
aI925
aa(lp1231
F0.2521875
aF0.603125
aI924
aa(lp1232
F0.25375000000000003
aF0.634375
aI901
aa(lp1233
F0.24953125
aF0.6140625
aI918
aa(lp1234
F0.2678125
aF0.696875
aI916
aa(lp1235
F0.26234375
aF0.628125
aI909
aatp1236
a((lp1237
(lp1238
F0.684765625
aF0.90234375
aI959
aa(lp1239
F0.60609375
aF0.80703125
aI916
aa(lp1240
F0.6275
aF0.85859375
aI924
aa(lp1241
F0.621484375
aF0.825
aI914
aa(lp1242
F0.63734375
aF0.853125
aI910
aa(lp1243
F0.6721093749999999
aF0.83359375
aI923
aa(lp1244
F0.638125
aF0.8296875
aI921
aa(lp1245
F0.6477343750000001
aF0.87421875
aI918
aa(lp1246
F0.656484375
aF0.8734375
aI924
aa(lp1247
F0.652109375
aF0.84609375
aI906
aa(lp1248
F0.664140625
aF0.8359375
aI933
aa(lp1249
F0.6546093749999999
aF0.884375
aI926
aa(lp1250
F0.64703125
aF0.81171875
aI912
aa(lp1251
F0.650625
aF0.82265625
aI925
aa(lp1252
F0.64125
aF0.82265625
aI925
aa(lp1253
F0.662109375
aF0.83984375
aI928
aa(lp1254
F0.6443750000000001
aF0.86953125
aI917
aa(lp1255
F0.64546875
aF0.84296875
aI916
aa(lp1256
F0.6354687499999999
aF0.81796875
aI911
aa(lp1257
F0.69421875
aF0.84765625
aI916
aa(lp1258
F0.6728124999999999
aF0.88125
aI912
aa(lp1259
F0.694140625
aF0.88046875
aI904
aa(lp1260
F0.6889062499999999
aF0.8375
aI924
aa(lp1261
F0.6613281249999999
aF0.84140625
aI920
aa(lp1262
F0.670234375
aF0.86015625
aI910
aa(lp1263
F0.666484375
aF0.83671875
aI908
aa(lp1264
F0.64765625
aF0.8671875
aI916
aa(lp1265
F0.6759374999999999
aF0.8421875
aI930
aa(lp1266
F0.660234375
aF0.82109375
aI920
aa(lp1267
F0.6228906249999999
aF0.81796875
aI920
aa(lp1268
F0.613828125
aF0.79140625
aI923
aa(lp1269
F0.5975
aF0.82265625
aI914
aa(lp1270
F0.665703125
aF0.828125
aI928
aa(lp1271
F0.663125
aF0.8375
aI918
aa(lp1272
F0.630078125
aF0.8484375
aI915
aa(lp1273
F0.6539843750000001
aF0.87421875
aI931
aa(lp1274
F0.665625
aF0.84453125
aI906
aa(lp1275
F0.6390625000000001
aF0.82890625
aI925
aa(lp1276
F0.668203125
aF0.84375
aI930
aa(lp1277
F0.645625
aF0.8109375
aI922
aa(lp1278
F0.645546875
aF0.83515625
aI915
aa(lp1279
F0.645625
aF0.83359375
aI916
aa(lp1280
F0.656328125
aF0.78125
aI923
aa(lp1281
F0.6065625
aF0.803125
aI922
aa(lp1282
F0.6134375
aF0.79765625
aI937
aa(lp1283
F0.609453125
aF0.81953125
aI923
aa(lp1284
F0.6551562500000001
aF0.80078125
aI917
aa(lp1285
F0.6311718749999999
aF0.79140625
aI927
aa(lp1286
F0.662734375
aF0.85703125
aI919
aa(lp1287
F0.6660156250000001
aF0.87109375
aI924
aa(lp1288
(lp1289
F0.21625
aF0.74375
aI959
aa(lp1290
F0.21953125
aF0.603125
aI916
aa(lp1291
F0.2575
aF0.7078125
aI924
aa(lp1292
F0.2278125
aF0.596875
aI914
aa(lp1293
F0.21421875
aF0.5921875
aI910
aa(lp1294
F0.26468749999999996
aF0.6203125
aI923
aa(lp1295
F0.2515625
aF0.65625
aI921
aa(lp1296
F0.293125
aF0.725
aI918
aa(lp1297
F0.2871875
aF0.70625
aI924
aa(lp1298
F0.281875
aF0.634375
aI906
aa(lp1299
F0.268125
aF0.615625
aI933
aa(lp1300
F0.25906250000000003
aF0.659375
aI926
aa(lp1301
F0.27171875
aF0.6109375
aI912
aa(lp1302
F0.26375000000000004
aF0.56875
aI925
aa(lp1303
F0.2528125
aF0.596875
aI925
aa(lp1304
F0.28375
aF0.6
aI928
aa(lp1305
F0.2659375
aF0.684375
aI917
aa(lp1306
F0.29265625
aF0.6828125
aI916
aa(lp1307
F0.281875
aF0.5875
aI911
aa(lp1308
F0.31515625
aF0.6609375
aI916
aa(lp1309
F0.29750000000000004
aF0.696875
aI912
aa(lp1310
F0.31625000000000003
aF0.696875
aI904
aa(lp1311
F0.31921875
aF0.6359375
aI924
aa(lp1312
F0.308125
aF0.60625
aI920
aa(lp1313
F0.326875
aF0.7
aI910
aa(lp1314
F0.3046875
aF0.6421875
aI908
aa(lp1315
F0.30453125000000003
aF0.7046875
aI916
aa(lp1316
F0.259375
aF0.578125
aI930
aa(lp1317
F0.23796875
aF0.5734375
aI920
aa(lp1318
F0.22296875000000002
aF0.6140625
aI920
aa(lp1319
F0.226875
aF0.575
aI923
aa(lp1320
F0.24328124999999998
aF0.6140625
aI914
aa(lp1321
F0.25328125
aF0.5921875
aI928
aa(lp1322
F0.2609375
aF0.6265625
aI918
aa(lp1323
F0.25671875
aF0.6359375
aI915
aa(lp1324
F0.26203125
aF0.7078125
aI931
aa(lp1325
F0.2528125
aF0.628125
aI906
aa(lp1326
F0.2671875
aF0.5796875
aI925
aa(lp1327
F0.29125
aF0.603125
aI930
aa(lp1328
F0.26
aF0.55625
aI922
aa(lp1329
F0.2709375
aF0.65
aI915
aa(lp1330
F0.2834375
aF0.65
aI916
aa(lp1331
F0.26109375
aF0.5296875
aI923
aa(lp1332
F0.21437499999999998
aF0.559375
aI922
aa(lp1333
F0.21437499999999998
aF0.528125
aI937
aa(lp1334
F0.19500000000000003
aF0.6125
aI923
aa(lp1335
F0.23046875
aF0.540625
aI917
aa(lp1336
F0.23343750000000002
aF0.5875
aI927
aa(lp1337
F0.271875
aF0.625
aI919
aa(lp1338
F0.31921875
aF0.7140625
aI924
aatp1339
a((lp1340
(lp1341
F0.66625
aF0.9234375
aI940
aa(lp1342
F0.609609375
aF0.84921875
aI921
aa(lp1343
F0.599140625
aF0.8140625
aI924
aa(lp1344
F0.6485156249999999
aF0.828125
aI920
aa(lp1345
F0.62171875
aF0.8546875
aI930
aa(lp1346
F0.635703125
aF0.85390625
aI908
aa(lp1347
F0.673125
aF0.8546875
aI917
aa(lp1348
F0.644765625
aF0.8578125
aI912
aa(lp1349
F0.6371093750000001
aF0.80859375
aI914
aa(lp1350
F0.634765625
aF0.8015625
aI913
aa(lp1351
F0.630078125
aF0.81015625
aI930
aa(lp1352
F0.6233593749999999
aF0.83671875
aI917
aa(lp1353
F0.63375
aF0.8265625
aI920
aa(lp1354
F0.656484375
aF0.80234375
aI924
aa(lp1355
F0.6359375
aF0.7890625
aI945
aa(lp1356
F0.605703125
aF0.79609375
aI921
aa(lp1357
F0.615234375
aF0.803125
aI923
aa(lp1358
F0.6203125
aF0.84453125
aI919
aa(lp1359
F0.64359375
aF0.8140625
aI923
aa(lp1360
F0.630390625
aF0.83046875
aI912
aa(lp1361
F0.62
aF0.85546875
aI921
aa(lp1362
F0.6350781249999999
aF0.871875
aI923
aa(lp1363
F0.60921875
aF0.78359375
aI918
aa(lp1364
F0.630703125
aF0.834375
aI924
aa(lp1365
F0.6213281250000001
aF0.84453125
aI924
aa(lp1366
F0.6384375
aF0.81328125
aI929
aa(lp1367
F0.6403125000000001
aF0.840625
aI923
aa(lp1368
F0.6550781250000001
aF0.83203125
aI916
aa(lp1369
F0.66109375
aF0.8578125
aI918
aa(lp1370
F0.651640625
aF0.86640625
aI903
aa(lp1371
F0.6490624999999999
aF0.83046875
aI921
aa(lp1372
F0.66796875
aF0.84375
aI908
aa(lp1373
F0.689609375
aF0.87109375
aI927
aa(lp1374
F0.670859375
aF0.87734375
aI909
aa(lp1375
F0.6696875
aF0.8671875
aI925
aa(lp1376
F0.6671875
aF0.8515625
aI923
aa(lp1377
F0.686953125
aF0.88046875
aI911
aa(lp1378
F0.636640625
aF0.86875
aI912
aa(lp1379
F0.665
aF0.86640625
aI923
aa(lp1380
F0.652734375
aF0.81640625
aI905
aa(lp1381
F0.6417968749999999
aF0.85546875
aI910
aa(lp1382
F0.609375
aF0.80546875
aI911
aa(lp1383
F0.6432812499999999
aF0.81015625
aI933
aa(lp1384
F0.62546875
aF0.8078125
aI931
aa(lp1385
F0.6475
aF0.83046875
aI935
aa(lp1386
F0.6334375000000001
aF0.80703125
aI912
aa(lp1387
F0.6223437500000001
aF0.83125
aI923
aa(lp1388
F0.6490625
aF0.83828125
aI915
aa(lp1389
F0.65421875
aF0.871875
aI917
aa(lp1390
F0.629921875
aF0.81796875
aI909
aa(lp1391
(lp1392
F0.26171875
aF0.8359375
aI940
aa(lp1393
F0.25078125
aF0.6640625
aI921
aa(lp1394
F0.25203125
aF0.5890625
aI924
aa(lp1395
F0.24015625
aF0.5984375
aI920
aa(lp1396
F0.23249999999999998
aF0.64375
aI930
aa(lp1397
F0.29234375
aF0.7015625
aI908
aa(lp1398
F0.2784375
aF0.66875
aI917
aa(lp1399
F0.24296875
aF0.6015625
aI912
aa(lp1400
F0.2553125
aF0.5875
aI914
aa(lp1401
F0.25609375
aF0.5640625
aI913
aa(lp1402
F0.21625000000000003
aF0.571875
aI930
aa(lp1403
F0.2421875
aF0.609375
aI917
aa(lp1404
F0.2421875
aF0.59375
aI920
aa(lp1405
F0.22171875
aF0.5328125
aI924
aa(lp1406
F0.21203125
aF0.5359375
aI945
aa(lp1407
F0.20734375
aF0.5515625
aI921
aa(lp1408
F0.21734374999999997
aF0.5296875
aI923
aa(lp1409
F0.21609375
aF0.6515625
aI919
aa(lp1410
F0.24921875000000002
aF0.5859375
aI923
aa(lp1411
F0.241875
aF0.628125
aI912
aa(lp1412
F0.25906250000000003
aF0.64375
aI921
aa(lp1413
F0.23125
aF0.659375
aI923
aa(lp1414
F0.20390625
aF0.5546875
aI918
aa(lp1415
F0.23390625
aF0.6296875
aI924
aa(lp1416
F0.208125
aF0.60625
aI924
aa(lp1417
F0.1971875
aF0.559375
aI929
aa(lp1418
F0.25390625
aF0.665625
aI923
aa(lp1419
F0.24828124999999998
aF0.5796875
aI916
aa(lp1420
F0.25046875
aF0.6046875
aI918
aa(lp1421
F0.24765625000000002
aF0.68125
aI903
aa(lp1422
F0.25875
aF0.63125
aI921
aa(lp1423
F0.28765625
aF0.5765625
aI908
aa(lp1424
F0.33296875000000004
aF0.6859375
aI927
aa(lp1425
F0.32265625
aF0.7109375
aI909
aa(lp1426
F0.3021875
aF0.634375
aI925
aa(lp1427
F0.301875
aF0.60625
aI923
aa(lp1428
F0.28765624999999995
aF0.6390625
aI911
aa(lp1429
F0.27171875
aF0.6734375
aI912
aa(lp1430
F0.2659375
aF0.66875
aI923
aa(lp1431
F0.25578125
aF0.5984375
aI905
aa(lp1432
F0.26015625
aF0.6171875
aI910
aa(lp1433
F0.24421875
aF0.5421875
aI911
aa(lp1434
F0.2471875
aF0.5296875
aI933
aa(lp1435
F0.24937499999999996
aF0.553125
aI931
aa(lp1436
F0.26109375
aF0.5765625
aI935
aa(lp1437
F0.26796875000000003
aF0.6015625
aI912
aa(lp1438
F0.25828125
aF0.6515625
aI923
aa(lp1439
F0.2571875
aF0.615625
aI915
aa(lp1440
F0.26328125
aF0.7109375
aI917
aa(lp1441
F0.27843749999999995
aF0.590625
aI909
aatp1442
a((lp1443
(lp1444
F0.675625
aF0.8765625
aI947
aa(lp1445
F0.6453125
aF0.83671875
aI903
aa(lp1446
F0.631796875
aF0.84609375
aI914
aa(lp1447
F0.6394531250000001
aF0.85
aI922
aa(lp1448
F0.6376562499999999
aF0.8109375
aI924
aa(lp1449
F0.630078125
aF0.825
aI917
aa(lp1450
F0.624921875
aF0.83671875
aI912
aa(lp1451
F0.621796875
aF0.82890625
aI919
aa(lp1452
F0.64734375
aF0.87109375
aI920
aa(lp1453
F0.63109375
aF0.83828125
aI911
aa(lp1454
F0.6125
aF0.8125
aI923
aa(lp1455
F0.627421875
aF0.8234375
aI920
aa(lp1456
F0.64453125
aF0.84375
aI906
aa(lp1457
F0.6373437500000001
aF0.8296875
aI914
aa(lp1458
F0.6195312500000001
aF0.81484375
aI914
aa(lp1459
F0.6192968750000001
aF0.80078125
aI910
aa(lp1460
F0.62296875
aF0.7875
aI943
aa(lp1461
F0.616953125
aF0.815625
aI912
aa(lp1462
F0.645546875
aF0.84140625
aI933
aa(lp1463
F0.684296875
aF0.8765625
aI911
aa(lp1464
F0.6807031250000001
aF0.90390625
aI910
aa(lp1465
F0.6859375
aF0.8984375
aI918
aa(lp1466
F0.7073437499999999
aF0.871875
aI918
aa(lp1467
F0.6783593750000001
aF0.86484375
aI925
aa(lp1468
F0.66234375
aF0.83828125
aI914
aa(lp1469
F0.6586718749999999
aF0.82734375
aI915
aa(lp1470
F0.655625
aF0.8359375
aI916
aa(lp1471
F0.6398437499999999
aF0.82109375
aI933
aa(lp1472
F0.6579687499999999
aF0.80390625
aI923
aa(lp1473
F0.6467187500000001
aF0.80625
aI922
aa(lp1474
F0.6439843749999999
aF0.834375
aI928
aa(lp1475
F0.6371875
aF0.809375
aI925
aa(lp1476
F0.6507031249999999
aF0.82890625
aI914
aa(lp1477
F0.64234375
aF0.85078125
aI931
aa(lp1478
F0.641875
aF0.8328125
aI918
aa(lp1479
F0.64703125
aF0.84453125
aI914
aa(lp1480
F0.648359375
aF0.8296875
aI920
aa(lp1481
F0.6482812499999999
aF0.83125
aI912
aa(lp1482
F0.63546875
aF0.84140625
aI904
aa(lp1483
F0.649609375
aF0.83203125
aI929
aa(lp1484
F0.6495312499999999
aF0.825
aI917
aa(lp1485
F0.652734375
aF0.80078125
aI923
aa(lp1486
F0.6740625
aF0.84609375
aI906
aa(lp1487
F0.6657031250000001
aF0.83515625
aI916
aa(lp1488
F0.646015625
aF0.8625
aI922
aa(lp1489
F0.688671875
aF0.88671875
aI932
aa(lp1490
F0.66390625
aF0.821875
aI931
aa(lp1491
F0.65671875
aF0.83203125
aI926
aa(lp1492
F0.6514843749999999
aF0.853125
aI925
aa(lp1493
F0.6603125000000001
aF0.8578125
aI925
aa(lp1494
(lp1495
F0.25515625
aF0.7296875
aI947
aa(lp1496
F0.24281250000000001
aF0.61875
aI903
aa(lp1497
F0.25484375
aF0.6078125
aI914
aa(lp1498
F0.23078125
aF0.6453125
aI922
aa(lp1499
F0.21749999999999997
aF0.559375
aI924
aa(lp1500
F0.22874999999999995
aF0.5578125
aI917
aa(lp1501
F0.23796875
aF0.6203125
aI912
aa(lp1502
F0.25375000000000003
aF0.61875
aI919
aa(lp1503
F0.2446875
aF0.709375
aI920
aa(lp1504
F0.21265625000000002
aF0.5765625
aI911
aa(lp1505
F0.24578125000000003
aF0.5734375
aI923
aa(lp1506
F0.23484375000000002
aF0.5890625
aI920
aa(lp1507
F0.25421875
aF0.6453125
aI906
aa(lp1508
F0.23953125000000003
aF0.5890625
aI914
aa(lp1509
F0.21312499999999998
aF0.61875
aI914
aa(lp1510
F0.19874999999999998
aF0.54375
aI910
aa(lp1511
F0.20093750000000002
aF0.5375
aI943
aa(lp1512
F0.2146875
aF0.571875
aI912
aa(lp1513
F0.24765625
aF0.6328125
aI933
aa(lp1514
F0.30515624999999996
aF0.715625
aI911
aa(lp1515
F0.32921874999999995
aF0.7546875
aI910
aa(lp1516
F0.33968750000000003
aF0.7125
aI918
aa(lp1517
F0.32984375
aF0.6703125
aI918
aa(lp1518
F0.274375
aF0.584375
aI925
aa(lp1519
F0.24953125
aF0.6
aI914
aa(lp1520
F0.25890625
aF0.5671875
aI915
aa(lp1521
F0.2990625
aF0.61875
aI916
aa(lp1522
F0.24312499999999998
aF0.584375
aI933
aa(lp1523
F0.244375
aF0.509375
aI923
aa(lp1524
F0.24390625
aF0.5609375
aI922
aa(lp1525
F0.25109375
aF0.6140625
aI928
aa(lp1526
F0.2296875
aF0.59375
aI925
aa(lp1527
F0.2278125
aF0.565625
aI914
aa(lp1528
F0.2596875
aF0.66875
aI931
aa(lp1529
F0.2771875
aF0.6515625
aI918
aa(lp1530
F0.23531249999999998
aF0.646875
aI914
aa(lp1531
F0.23875000000000002
aF0.565625
aI920
aa(lp1532
F0.19609375
aF0.525
aI912
aa(lp1533
F0.26265625000000004
aF0.6078125
aI904
aa(lp1534
F0.27
aF0.58125
aI929
aa(lp1535
F0.260625
aF0.58125
aI917
aa(lp1536
F0.27640625
aF0.5796875
aI923
aa(lp1537
F0.28718750000000004
aF0.5984375
aI906
aa(lp1538
F0.2684375
aF0.6125
aI916
aa(lp1539
F0.3075
aF0.64375
aI922
aa(lp1540
F0.31078125
aF0.6734375
aI932
aa(lp1541
F0.2803125
aF0.540625
aI931
aa(lp1542
F0.27062499999999995
aF0.60625
aI926
aa(lp1543
F0.25765625000000003
aF0.6265625
aI925
aa(lp1544
F0.2440625
aF0.653125
aI925
aatp1545
a((lp1546
(lp1547
F0.7060937500000001
aF0.884375
aI961
aa(lp1548
F0.606796875
aF0.809375
aI928
aa(lp1549
F0.63875
aF0.77734375
aI919
aa(lp1550
F0.625703125
aF0.79921875
aI928
aa(lp1551
F0.6271093750000001
aF0.8
aI914
aa(lp1552
F0.6705468750000001
aF0.84921875
aI904
aa(lp1553
F0.6849999999999999
aF0.87734375
aI904
aa(lp1554
F0.656796875
aF0.83828125
aI927
aa(lp1555
F0.6240625000000001
aF0.80703125
aI916
aa(lp1556
F0.6427343750000001
aF0.81484375
aI919
aa(lp1557
F0.659375
aF0.82890625
aI911
aa(lp1558
F0.662265625
aF0.85390625
aI916
aa(lp1559
F0.644765625
aF0.84296875
aI928
aa(lp1560
F0.670703125
aF0.83359375
aI921
aa(lp1561
F0.678359375
aF0.83515625
aI922
aa(lp1562
F0.6759375000000001
aF0.859375
aI901
aa(lp1563
F0.6518749999999999
aF0.825
aI915
aa(lp1564
F0.641953125
aF0.8234375
aI922
aa(lp1565
F0.6312500000000001
aF0.78984375
aI917
aa(lp1566
F0.633671875
aF0.83046875
aI913
aa(lp1567
F0.627890625
aF0.79296875
aI916
aa(lp1568
F0.6162500000000001
aF0.80859375
aI921
aa(lp1569
F0.6396093749999999
aF0.8234375
aI911
aa(lp1570
F0.63421875
aF0.8453125
aI912
aa(lp1571
F0.639921875
aF0.82890625
aI919
aa(lp1572
F0.644609375
aF0.82109375
aI918
aa(lp1573
F0.640546875
aF0.78984375
aI922
aa(lp1574
F0.663828125
aF0.83828125
aI910
aa(lp1575
F0.656484375
aF0.8421875
aI912
aa(lp1576
F0.6702343749999999
aF0.86875
aI906
aa(lp1577
F0.662421875
aF0.86015625
aI919
aa(lp1578
F0.6665625
aF0.87421875
aI918
aa(lp1579
F0.65765625
aF0.84609375
aI915
aa(lp1580
F0.638359375
aF0.78984375
aI918
aa(lp1581
F0.671953125
aF0.82890625
aI918
aa(lp1582
F0.695625
aF0.85703125
aI933
aa(lp1583
F0.672109375
aF0.87265625
aI908
aa(lp1584
F0.663203125
aF0.83828125
aI927
aa(lp1585
F0.661875
aF0.85
aI916
aa(lp1586
F0.6364062500000001
aF0.8234375
aI917
aa(lp1587
F0.6658593749999999
aF0.85078125
aI927
aa(lp1588
F0.666953125
aF0.83828125
aI904
aa(lp1589
F0.6896875
aF0.8453125
aI911
aa(lp1590
F0.648984375
aF0.8484375
aI924
aa(lp1591
F0.6478125
aF0.7953125
aI915
aa(lp1592
F0.6432812499999999
aF0.809375
aI918
aa(lp1593
F0.656953125
aF0.8609375
aI918
aa(lp1594
F0.65796875
aF0.865625
aI913
aa(lp1595
F0.655
aF0.871875
aI912
aa(lp1596
F0.64171875
aF0.85703125
aI925
aa(lp1597
(lp1598
F0.26609374999999996
aF0.7140625
aI961
aa(lp1599
F0.22640625000000003
aF0.6265625
aI928
aa(lp1600
F0.2275
aF0.521875
aI919
aa(lp1601
F0.22578125
aF0.5390625
aI928
aa(lp1602
F0.25984375
aF0.5734375
aI914
aa(lp1603
F0.32890625
aF0.6484375
aI904
aa(lp1604
F0.31359375
aF0.6765625
aI904
aa(lp1605
F0.2690625
aF0.621875
aI927
aa(lp1606
F0.26984374999999994
aF0.5984375
aI916
aa(lp1607
F0.278125
aF0.625
aI919
aa(lp1608
F0.26968749999999997
aF0.63125
aI911
aa(lp1609
F0.27921875
aF0.6296875
aI916
aa(lp1610
F0.27390625
aF0.6515625
aI928
aa(lp1611
F0.27234375
aF0.6046875
aI921
aa(lp1612
F0.2809375
aF0.534375
aI922
aa(lp1613
F0.27203125
aF0.6703125
aI901
aa(lp1614
F0.23484375000000002
aF0.5734375
aI915
aa(lp1615
F0.2575
aF0.628125
aI922
aa(lp1616
F0.26484375000000004
aF0.5859375
aI917
aa(lp1617
F0.23515625
aF0.6171875
aI913
aa(lp1618
F0.24140625000000002
aF0.5703125
aI916
aa(lp1619
F0.25578124999999996
aF0.6140625
aI921
aa(lp1620
F0.24234375000000002
aF0.5921875
aI911
aa(lp1621
F0.24828125
aF0.6109375
aI912
aa(lp1622
F0.26359374999999996
aF0.5859375
aI919
aa(lp1623
F0.24703125
aF0.5765625
aI918
aa(lp1624
F0.23296875
aF0.5296875
aI922
aa(lp1625
F0.27671875
aF0.6078125
aI910
aa(lp1626
F0.27796875
aF0.6109375
aI912
aa(lp1627
F0.2815625
aF0.684375
aI906
aa(lp1628
F0.2703125
aF0.640625
aI919
aa(lp1629
F0.24984374999999998
aF0.6578125
aI918
aa(lp1630
F0.23890625
aF0.5796875
aI915
aa(lp1631
F0.23640625
aF0.5578125
aI918
aa(lp1632
F0.23687500000000003
aF0.615625
aI918
aa(lp1633
F0.26359375
aF0.6453125
aI933
aa(lp1634
F0.30843750000000003
aF0.696875
aI908
aa(lp1635
F0.3053125
aF0.6203125
aI927
aa(lp1636
F0.32046875
aF0.7015625
aI916
aa(lp1637
F0.2878125
aF0.621875
aI917
aa(lp1638
F0.333125
aF0.66875
aI927
aa(lp1639
F0.3134375
aF0.63125
aI904
aa(lp1640
F0.28984375
aF0.6015625
aI911
aa(lp1641
F0.24874999999999997
aF0.60625
aI924
aa(lp1642
F0.27
aF0.534375
aI915
aa(lp1643
F0.2678125
aF0.603125
aI918
aa(lp1644
F0.28859375
aF0.6453125
aI918
aa(lp1645
F0.28734374999999995
aF0.6890625
aI913
aa(lp1646
F0.31734375
aF0.7171875
aI912
aa(lp1647
F0.32
aF0.70625
aI925
aatp1648
a((lp1649
(lp1650
F0.688359375
aF0.88984375
aI947
aa(lp1651
F0.607421875
aF0.81015625
aI920
aa(lp1652
F0.6397656249999999
aF0.80625
aI918
aa(lp1653
F0.634765625
aF0.81171875
aI937
aa(lp1654
F0.644765625
aF0.84375
aI925
aa(lp1655
F0.640703125
aF0.84375
aI907
aa(lp1656
F0.649609375
aF0.8484375
aI912
aa(lp1657
F0.650625
aF0.86875
aI919
aa(lp1658
F0.649609375
aF0.840625
aI920
aa(lp1659
F0.642890625
aF0.86328125
aI915
aa(lp1660
F0.6607031250000001
aF0.846875
aI919
aa(lp1661
F0.66875
aF0.8609375
aI924
aa(lp1662
F0.644140625
aF0.84921875
aI917
aa(lp1663
F0.669609375
aF0.8125
aI916
aa(lp1664
F0.661015625
aF0.83515625
aI922
aa(lp1665
F0.664609375
aF0.846875
aI926
aa(lp1666
F0.6749999999999999
aF0.859375
aI924
aa(lp1667
F0.652421875
aF0.89921875
aI921
aa(lp1668
F0.6659375000000001
aF0.84140625
aI915
aa(lp1669
F0.6785156250000001
aF0.84765625
aI919
aa(lp1670
F0.674453125
aF0.83359375
aI921
aa(lp1671
F0.6489062500000001
aF0.8390625
aI929
aa(lp1672
F0.62828125
aF0.834375
aI917
aa(lp1673
F0.655859375
aF0.79296875
aI932
aa(lp1674
F0.6555468750000001
aF0.8359375
aI924
aa(lp1675
F0.650546875
aF0.83046875
aI911
aa(lp1676
F0.677734375
aF0.840625
aI924
aa(lp1677
F0.6416406250000001
aF0.8265625
aI927
aa(lp1678
F0.640078125
aF0.8578125
aI928
aa(lp1679
F0.640234375
aF0.84765625
aI917
aa(lp1680
F0.6272656249999999
aF0.8375
aI923
aa(lp1681
F0.6457031249999999
aF0.825
aI931
aa(lp1682
F0.65015625
aF0.8734375
aI920
aa(lp1683
F0.67671875
aF0.87421875
aI938
aa(lp1684
F0.644453125
aF0.82265625
aI920
aa(lp1685
F0.674765625
aF0.8234375
aI917
aa(lp1686
F0.66296875
aF0.8390625
aI908
aa(lp1687
F0.637421875
aF0.83671875
aI921
aa(lp1688
F0.6451562500000001
aF0.86171875
aI919
aa(lp1689
F0.6414843750000001
aF0.84453125
aI903
aa(lp1690
F0.622109375
aF0.83515625
aI903
aa(lp1691
F0.663515625
aF0.85
aI911
aa(lp1692
F0.64984375
aF0.83046875
aI922
aa(lp1693
F0.66875
aF0.87578125
aI925
aa(lp1694
F0.6528125
aF0.8390625
aI916
aa(lp1695
F0.656640625
aF0.85625
aI915
aa(lp1696
F0.658828125
aF0.83515625
aI916
aa(lp1697
F0.6518750000000001
aF0.840625
aI920
aa(lp1698
F0.6474218749999999
aF0.80703125
aI921
aa(lp1699
F0.6628125
aF0.8328125
aI916
aa(lp1700
(lp1701
F0.2584375
aF0.696875
aI947
aa(lp1702
F0.2315625
aF0.575
aI920
aa(lp1703
F0.20562499999999997
aF0.56875
aI918
aa(lp1704
F0.21875
aF0.546875
aI937
aa(lp1705
F0.23609375000000002
aF0.5953125
aI925
aa(lp1706
F0.26640625
aF0.6484375
aI907
aa(lp1707
F0.28187500000000004
aF0.696875
aI912
aa(lp1708
F0.318125
aF0.725
aI919
aa(lp1709
F0.28718750000000004
aF0.659375
aI920
aa(lp1710
F0.29828125
aF0.6734375
aI915
aa(lp1711
F0.2953125
aF0.6875
aI919
aa(lp1712
F0.28453125
aF0.6390625
aI924
aa(lp1713
F0.25875
aF0.63125
aI917
aa(lp1714
F0.30499999999999994
aF0.575
aI916
aa(lp1715
F0.24031249999999998
aF0.58125
aI922
aa(lp1716
F0.32906250000000004
aF0.646875
aI926
aa(lp1717
F0.28515625
aF0.6640625
aI924
aa(lp1718
F0.27984375
aF0.7953125
aI921
aa(lp1719
F0.26484375
aF0.6171875
aI915
aa(lp1720
F0.30421875
aF0.6765625
aI919
aa(lp1721
F0.273125
aF0.565625
aI921
aa(lp1722
F0.2525
aF0.6
aI929
aa(lp1723
F0.27140624999999996
aF0.5828125
aI917
aa(lp1724
F0.25171875
aF0.5296875
aI932
aa(lp1725
F0.27265625000000004
aF0.5859375
aI924
aa(lp1726
F0.25906250000000003
aF0.596875
aI911
aa(lp1727
F0.22828125
aF0.6234375
aI924
aa(lp1728
F0.24953124999999998
aF0.5828125
aI927
aa(lp1729
F0.26
aF0.65
aI928
aa(lp1730
F0.27656250000000004
aF0.671875
aI917
aa(lp1731
F0.25390625
aF0.6171875
aI923
aa(lp1732
F0.25640625
aF0.5765625
aI931
aa(lp1733
F0.30312500000000003
aF0.671875
aI920
aa(lp1734
F0.26484375
aF0.6328125
aI938
aa(lp1735
F0.27015625
aF0.5953125
aI920
aa(lp1736
F0.2621875
aF0.58125
aI917
aa(lp1737
F0.24906250000000002
aF0.5875
aI908
aa(lp1738
F0.22968750000000002
aF0.625
aI921
aa(lp1739
F0.25734375
aF0.6765625
aI919
aa(lp1740
F0.25515625
aF0.6671875
aI903
aa(lp1741
F0.23765625
aF0.5921875
aI903
aa(lp1742
F0.264375
aF0.60625
aI911
aa(lp1743
F0.26468749999999996
aF0.6046875
aI922
aa(lp1744
F0.26828125
aF0.6296875
aI925
aa(lp1745
F0.24562499999999998
aF0.559375
aI916
aa(lp1746
F0.2384375
aF0.584375
aI915
aa(lp1747
F0.24312499999999998
aF0.63125
aI916
aa(lp1748
F0.261875
aF0.6
aI920
aa(lp1749
F0.25453125
aF0.5640625
aI921
aa(lp1750
F0.285625
aF0.596875
aI916
aatp1751
a((lp1752
(lp1753
F0.70671875
aF0.8859375
aI955
aa(lp1754
F0.581640625
aF0.79296875
aI915
aa(lp1755
F0.6302343749999999
aF0.784375
aI912
aa(lp1756
F0.6259375
aF0.81875
aI929
aa(lp1757
F0.6232031250000001
aF0.83046875
aI908
aa(lp1758
F0.635703125
aF0.81640625
aI924
aa(lp1759
F0.6294531250000001
aF0.77734375
aI919
aa(lp1760
F0.628984375
aF0.8125
aI922
aa(lp1761
F0.6328124999999999
aF0.83671875
aI922
aa(lp1762
F0.6325781250000001
aF0.81484375
aI922
aa(lp1763
F0.621796875
aF0.79921875
aI916
aa(lp1764
F0.6311718749999999
aF0.8296875
aI926
aa(lp1765
F0.618125
aF0.83515625
aI919
aa(lp1766
F0.6284375
aF0.8109375
aI911
aa(lp1767
F0.6471874999999999
aF0.825
aI924
aa(lp1768
F0.6578125
aF0.8203125
aI928
aa(lp1769
F0.646640625
aF0.83125
aI931
aa(lp1770
F0.645546875
aF0.79609375
aI921
aa(lp1771
F0.633984375
aF0.78515625
aI903
aa(lp1772
F0.63921875
aF0.8265625
aI921
aa(lp1773
F0.651640625
aF0.82890625
aI906
aa(lp1774
F0.633828125
aF0.85859375
aI906
aa(lp1775
F0.669453125
aF0.87578125
aI914
aa(lp1776
F0.64671875
aF0.82265625
aI908
aa(lp1777
F0.6628125
aF0.840625
aI915
aa(lp1778
F0.65796875
aF0.88125
aI907
aa(lp1779
F0.6419531249999999
aF0.8703125
aI906
aa(lp1780
F0.65625
aF0.87578125
aI911
aa(lp1781
F0.658828125
aF0.85703125
aI915
aa(lp1782
F0.67328125
aF0.853125
aI907
aa(lp1783
F0.674375
aF0.8984375
aI907
aa(lp1784
F0.6929687500000001
aF0.8515625
aI906
aa(lp1785
F0.66265625
aF0.81875
aI911
aa(lp1786
F0.6678906250000001
aF0.86015625
aI930
aa(lp1787
F0.6653125
aF0.85703125
aI914
aa(lp1788
F0.65546875
aF0.828125
aI908
aa(lp1789
F0.6680468749999999
aF0.85234375
aI906
aa(lp1790
F0.6534375
aF0.85703125
aI923
aa(lp1791
F0.6840624999999999
aF0.85
aI923
aa(lp1792
F0.655546875
aF0.8671875
aI932
aa(lp1793
F0.67625
aF0.846875
aI913
aa(lp1794
F0.668125
aF0.865625
aI910
aa(lp1795
F0.6744531250000001
aF0.865625
aI913
aa(lp1796
F0.649609375
aF0.87890625
aI919
aa(lp1797
F0.6454687499999999
aF0.853125
aI912
aa(lp1798
F0.637890625
aF0.8484375
aI917
aa(lp1799
F0.633671875
aF0.8671875
aI928
aa(lp1800
F0.637734375
aF0.84140625
aI924
aa(lp1801
F0.60296875
aF0.80625
aI903
aa(lp1802
F0.659453125
aF0.8671875
aI924
aa(lp1803
(lp1804
F0.22953125000000002
aF0.6890625
aI955
aa(lp1805
F0.21296875
aF0.6046875
aI915
aa(lp1806
F0.20375000000000001
aF0.49375
aI912
aa(lp1807
F0.2071875
aF0.584375
aI929
aa(lp1808
F0.2078125
aF0.640625
aI908
aa(lp1809
F0.21359375
aF0.5515625
aI924
aa(lp1810
F0.22343749999999998
aF0.53125
aI919
aa(lp1811
F0.2421875
aF0.609375
aI922
aa(lp1812
F0.23421875000000003
aF0.6265625
aI922
aa(lp1813
F0.2275
aF0.5375
aI922
aa(lp1814
F0.21578124999999998
aF0.5140625
aI916
aa(lp1815
F0.21812499999999999
aF0.584375
aI926
aa(lp1816
F0.2475
aF0.603125
aI919
aa(lp1817
F0.26890625
aF0.5921875
aI911
aa(lp1818
F0.255
aF0.54375
aI924
aa(lp1819
F0.24453124999999998
aF0.6171875
aI928
aa(lp1820
F0.2346875
aF0.575
aI931
aa(lp1821
F0.25984375000000004
aF0.5421875
aI921
aa(lp1822
F0.2621875
aF0.55
aI903
aa(lp1823
F0.2690625
aF0.60625
aI921
aa(lp1824
F0.2684375
aF0.5984375
aI906
aa(lp1825
F0.2603125
aF0.63125
aI906
aa(lp1826
F0.30703125
aF0.6953125
aI914
aa(lp1827
F0.2684375
aF0.596875
aI908
aa(lp1828
F0.29484374999999996
aF0.6453125
aI915
aa(lp1829
F0.328125
aF0.734375
aI907
aa(lp1830
F0.26749999999999996
aF0.6375
aI906
aa(lp1831
F0.29484375
aF0.6609375
aI911
aa(lp1832
F0.29890625000000004
aF0.6859375
aI915
aa(lp1833
F0.32546875000000003
aF0.6515625
aI907
aa(lp1834
F0.3359375
aF0.734375
aI907
aa(lp1835
F0.3040625
aF0.646875
aI906
aa(lp1836
F0.2690625
aF0.54375
aI911
aa(lp1837
F0.30874999999999997
aF0.615625
aI930
aa(lp1838
F0.2996875
aF0.628125
aI914
aa(lp1839
F0.266875
aF0.596875
aI908
aa(lp1840
F0.27937500000000004
aF0.6453125
aI906
aa(lp1841
F0.31578124999999996
aF0.6703125
aI923
aa(lp1842
F0.331875
aF0.65
aI923
aa(lp1843
F0.27484375
aF0.6578125
aI932
aa(lp1844
F0.27890625
aF0.6171875
aI913
aa(lp1845
F0.29640625
aF0.6296875
aI910
aa(lp1846
F0.2990625
aF0.68125
aI913
aa(lp1847
F0.2534375
aF0.715625
aI919
aa(lp1848
F0.24296875
aF0.665625
aI912
aa(lp1849
F0.2625
aF0.6875
aI917
aa(lp1850
F0.25828125
aF0.7
aI928
aa(lp1851
F0.24953125
aF0.6140625
aI924
aa(lp1852
F0.210625
aF0.55
aI903
aa(lp1853
F0.238125
aF0.65
aI924
aatp1854
a((lp1855
(lp1856
F0.6367187500000001
aF0.9296875
aI946
aa(lp1857
F0.602890625
aF0.85390625
aI905
aa(lp1858
F0.6207812500000001
aF0.840625
aI933
aa(lp1859
F0.63671875
aF0.828125
aI926
aa(lp1860
F0.657109375
aF0.85078125
aI922
aa(lp1861
F0.645078125
aF0.83828125
aI926
aa(lp1862
F0.6504687499999999
aF0.83359375
aI918
aa(lp1863
F0.614296875
aF0.85
aI921
aa(lp1864
F0.6190625
aF0.8328125
aI922
aa(lp1865
F0.6253125
aF0.803125
aI923
aa(lp1866
F0.6383593750000001
aF0.81953125
aI922
aa(lp1867
F0.6689062499999999
aF0.88203125
aI918
aa(lp1868
F0.644453125
aF0.8375
aI933
aa(lp1869
F0.624453125
aF0.8109375
aI914
aa(lp1870
F0.6369531249999999
aF0.7953125
aI920
aa(lp1871
F0.6678906250000001
aF0.82109375
aI918
aa(lp1872
F0.6643749999999999
aF0.83359375
aI920
aa(lp1873
F0.672109375
aF0.8515625
aI919
aa(lp1874
F0.6999218749999999
aF0.86875
aI911
aa(lp1875
F0.6765625000000001
aF0.88359375
aI892
aa(lp1876
F0.671796875
aF0.86171875
aI901
aa(lp1877
F0.65015625
aF0.8265625
aI927
aa(lp1878
F0.6469531250000001
aF0.81953125
aI916
aa(lp1879
F0.636484375
aF0.815625
aI907
aa(lp1880
F0.6578124999999999
aF0.8359375
aI928
aa(lp1881
F0.6243749999999999
aF0.80390625
aI931
aa(lp1882
F0.645078125
aF0.8078125
aI918
aa(lp1883
F0.65234375
aF0.81328125
aI908
aa(lp1884
F0.653671875
aF0.8234375
aI922
aa(lp1885
F0.644609375
aF0.796875
aI921
aa(lp1886
F0.66140625
aF0.8578125
aI928
aa(lp1887
F0.647109375
aF0.82734375
aI928
aa(lp1888
F0.6754687500000001
aF0.8546875
aI920
aa(lp1889
F0.6475781250000001
aF0.8234375
aI914
aa(lp1890
F0.6100781249999999
aF0.80546875
aI921
aa(lp1891
F0.6282812499999999
aF0.81953125
aI913
aa(lp1892
F0.657578125
aF0.82265625
aI923
aa(lp1893
F0.624140625
aF0.8140625
aI926
aa(lp1894
F0.6612499999999999
aF0.8265625
aI920
aa(lp1895
F0.66953125
aF0.85234375
aI917
aa(lp1896
F0.622109375
aF0.85703125
aI919
aa(lp1897
F0.656640625
aF0.86484375
aI913
aa(lp1898
F0.6859375
aF0.859375
aI900
aa(lp1899
F0.6511718750000001
aF0.8796875
aI895
aa(lp1900
F0.63796875
aF0.8484375
aI916
aa(lp1901
F0.6553125
aF0.85390625
aI920
aa(lp1902
F0.654765625
aF0.875
aI910
aa(lp1903
F0.647890625
aF0.85
aI921
aa(lp1904
F0.6296093749999999
aF0.8375
aI896
aa(lp1905
F0.653125
aF0.86015625
aI905
aa(lp1906
(lp1907
F0.25015625
aF0.8421875
aI946
aa(lp1908
F0.24625
aF0.69375
aI905
aa(lp1909
F0.250625
aF0.65
aI933
aa(lp1910
F0.26421874999999995
aF0.6390625
aI926
aa(lp1911
F0.22718750000000001
aF0.61875
aI922
aa(lp1912
F0.21953125
aF0.5859375
aI926
aa(lp1913
F0.24125000000000002
aF0.5875
aI918
aa(lp1914
F0.26125
aF0.66875
aI921
aa(lp1915
F0.2303125
aF0.61875
aI922
aa(lp1916
F0.23953125
aF0.5578125
aI923
aa(lp1917
F0.258125
aF0.60625
aI922
aa(lp1918
F0.31234375
aF0.6890625
aI918
aa(lp1919
F0.29046875000000005
aF0.6578125
aI933
aa(lp1920
F0.25546875
aF0.6015625
aI914
aa(lp1921
F0.275
aF0.5953125
aI920
aa(lp1922
F0.27328125000000003
aF0.5640625
aI918
aa(lp1923
F0.28734375
aF0.6265625
aI920
aa(lp1924
F0.25671875
aF0.6203125
aI919
aa(lp1925
F0.32203125
aF0.6703125
aI911
aa(lp1926
F0.30093749999999997
aF0.6796875
aI892
aa(lp1927
F0.33999999999999997
aF0.6828125
aI901
aa(lp1928
F0.23953125000000003
aF0.5734375
aI927
aa(lp1929
F0.25953125
aF0.5453125
aI916
aa(lp1930
F0.21203125
aF0.5671875
aI907
aa(lp1931
F0.2734375
aF0.609375
aI928
aa(lp1932
F0.22203124999999999
aF0.5609375
aI931
aa(lp1933
F0.246875
aF0.59375
aI918
aa(lp1934
F0.24906250000000002
aF0.571875
aI908
aa(lp1935
F0.25640625
aF0.5921875
aI922
aa(lp1936
F0.24265625
aF0.5265625
aI921
aa(lp1937
F0.25984375000000004
aF0.6203125
aI928
aa(lp1938
F0.2571875
aF0.615625
aI928
aa(lp1939
F0.25984375000000004
aF0.6203125
aI920
aa(lp1940
F0.23171875
aF0.6046875
aI914
aa(lp1941
F0.20609375
aF0.5796875
aI921
aa(lp1942
F0.25734375
aF0.5984375
aI913
aa(lp1943
F0.25828125
aF0.6046875
aI923
aa(lp1944
F0.25609375
aF0.6109375
aI926
aa(lp1945
F0.24109375000000002
aF0.5578125
aI920
aa(lp1946
F0.28234375
aF0.6609375
aI917
aa(lp1947
F0.21921875
aF0.6984375
aI919
aa(lp1948
F0.29609374999999993
aF0.6640625
aI913
aa(lp1949
F0.30968749999999995
aF0.653125
aI900
aa(lp1950
F0.2959375
aF0.696875
aI895
aa(lp1951
F0.27218749999999997
aF0.66875
aI916
aa(lp1952
F0.29921875000000003
aF0.6484375
aI920
aa(lp1953
F0.26515625
aF0.6921875
aI910
aa(lp1954
F0.24937499999999999
aF0.615625
aI921
aa(lp1955
F0.29421875000000003
aF0.6203125
aI896
aa(lp1956
F0.2653125
aF0.6125
aI905
aatp1957
a((lp1958
(lp1959
F0.653125
aF0.875
aI946
aa(lp1960
F0.6265625
aF0.828125
aI910
aa(lp1961
F0.6308593750000001
aF0.8328125
aI920
aa(lp1962
F0.626171875
aF0.84765625
aI921
aa(lp1963
F0.655625
aF0.82734375
aI926
aa(lp1964
F0.632734375
aF0.8140625
aI918
aa(lp1965
F0.6346875000000001
aF0.84140625
aI916
aa(lp1966
F0.62734375
aF0.8203125
aI923
aa(lp1967
F0.645078125
aF0.815625
aI933
aa(lp1968
F0.6278125
aF0.8484375
aI929
aa(lp1969
F0.644140625
aF0.8484375
aI922
aa(lp1970
F0.669765625
aF0.8578125
aI925
aa(lp1971
F0.698984375
aF0.87890625
aI917
aa(lp1972
F0.68625
aF0.8484375
aI922
aa(lp1973
F0.6833593749999999
aF0.8625
aI923
aa(lp1974
F0.7021875
aF0.8765625
aI909
aa(lp1975
F0.673828125
aF0.89453125
aI901
aa(lp1976
F0.665
aF0.865625
aI903
aa(lp1977
F0.6846093750000001
aF0.86640625
aI912
aa(lp1978
F0.6595312499999999
aF0.865625
aI920
aa(lp1979
F0.686875
aF0.88984375
aI908
aa(lp1980
F0.646640625
aF0.83046875
aI905
aa(lp1981
F0.6550781250000001
aF0.86328125
aI937
aa(lp1982
F0.6668750000000001
aF0.8546875
aI918
aa(lp1983
F0.6728125
aF0.88984375
aI921
aa(lp1984
F0.6583593749999999
aF0.8390625
aI920
aa(lp1985
F0.670390625
aF0.85234375
aI927
aa(lp1986
F0.66421875
aF0.81171875
aI906
aa(lp1987
F0.6744531250000001
aF0.84921875
aI922
aa(lp1988
F0.66796875
aF0.83671875
aI934
aa(lp1989
F0.651328125
aF0.83828125
aI923
aa(lp1990
F0.6912500000000001
aF0.86875
aI918
aa(lp1991
F0.6806249999999999
aF0.8890625
aI922
aa(lp1992
F0.6571874999999999
aF0.8046875
aI922
aa(lp1993
F0.6673437499999999
aF0.865625
aI926
aa(lp1994
F0.64203125
aF0.878125
aI919
aa(lp1995
F0.62359375
aF0.82734375
aI913
aa(lp1996
F0.64125
aF0.83828125
aI930
aa(lp1997
F0.6706249999999999
aF0.85
aI915
aa(lp1998
F0.6463281249999999
aF0.83359375
aI921
aa(lp1999
F0.6415624999999999
aF0.84375
aI915
aa(lp2000
F0.6474218749999999
aF0.84609375
aI915
aa(lp2001
F0.6446093750000002
aF0.80390625
aI924
aa(lp2002
F0.644140625
aF0.76953125
aI928
aa(lp2003
F0.6446875
aF0.8109375
aI925
aa(lp2004
F0.642578125
aF0.82421875
aI927
aa(lp2005
F0.612890625
aF0.828125
aI910
aa(lp2006
F0.6297656250000001
aF0.84375
aI928
aa(lp2007
F0.64734375
aF0.83125
aI913
aa(lp2008
F0.62421875
aF0.8203125
aI922
aa(lp2009
(lp2010
F0.23234375000000002
aF0.7234375
aI946
aa(lp2011
F0.21015625
aF0.5859375
aI910
aa(lp2012
F0.24093749999999997
aF0.653125
aI920
aa(lp2013
F0.22812500000000002
aF0.578125
aI921
aa(lp2014
F0.2390625
aF0.5625
aI926
aa(lp2015
F0.24140625
aF0.5859375
aI918
aa(lp2016
F0.22000000000000003
aF0.628125
aI916
aa(lp2017
F0.25593750000000004
aF0.628125
aI923
aa(lp2018
F0.24765625
aF0.6328125
aI933
aa(lp2019
F0.256875
aF0.65
aI929
aa(lp2020
F0.24874999999999997
aF0.60625
aI922
aa(lp2021
F0.26
aF0.65
aI925
aa(lp2022
F0.31640625
aF0.6953125
aI917
aa(lp2023
F0.28453125
aF0.6390625
aI922
aa(lp2024
F0.32781250000000006
aF0.690625
aI923
aa(lp2025
F0.31890624999999995
aF0.6703125
aI909
aa(lp2026
F0.35296875000000005
aF0.7359375
aI901
aa(lp2027
F0.32171875
aF0.6890625
aI903
aa(lp2028
F0.294375
aF0.68125
aI912
aa(lp2029
F0.30281250000000004
aF0.690625
aI920
aa(lp2030
F0.32218749999999996
aF0.6859375
aI908
aa(lp2031
F0.28484375
aF0.5890625
aI905
aa(lp2032
F0.255625
aF0.69375
aI937
aa(lp2033
F0.2959375
aF0.665625
aI918
aa(lp2034
F0.30703125000000003
aF0.6796875
aI921
aa(lp2035
F0.27765625
aF0.6453125
aI920
aa(lp2036
F0.25125000000000003
aF0.659375
aI927
aa(lp2037
F0.2659375
aF0.590625
aI906
aa(lp2038
F0.284375
aF0.640625
aI922
aa(lp2039
F0.28921875
aF0.6546875
aI934
aa(lp2040
F0.2784375
aF0.621875
aI923
aa(lp2041
F0.31140625
aF0.6671875
aI918
aa(lp2042
F0.31093750000000003
aF0.71875
aI922
aa(lp2043
F0.25484375000000004
aF0.5796875
aI922
aa(lp2044
F0.2565625
aF0.621875
aI926
aa(lp2045
F0.26671874999999995
aF0.6921875
aI919
aa(lp2046
F0.24828124999999995
aF0.55
aI913
aa(lp2047
F0.25640624999999995
aF0.6234375
aI930
aa(lp2048
F0.28328125000000004
aF0.5890625
aI915
aa(lp2049
F0.2621875
aF0.596875
aI921
aa(lp2050
F0.24125
aF0.65
aI915
aa(lp2051
F0.2384375
aF0.646875
aI915
aa(lp2052
F0.22468750000000004
aF0.55
aI924
aa(lp2053
F0.22171875
aF0.5328125
aI928
aa(lp2054
F0.23750000000000002
aF0.546875
aI925
aa(lp2055
F0.21
aF0.571875
aI927
aa(lp2056
F0.21328124999999998
aF0.65
aI910
aa(lp2057
F0.2503125
aF0.66875
aI928
aa(lp2058
F0.239375
aF0.575
aI913
aa(lp2059
F0.22390625000000003
aF0.5578125
aI922
aatp2060
a((lp2061
(lp2062
F0.670078125
aF0.88515625
aI947
aa(lp2063
F0.6030468749999999
aF0.80546875
aI914
aa(lp2064
F0.6256250000000001
aF0.821875
aI918
aa(lp2065
F0.636171875
aF0.81015625
aI915
aa(lp2066
F0.6427343750000001
aF0.81484375
aI915
aa(lp2067
F0.6518750000000001
aF0.84140625
aI926
aa(lp2068
F0.645625
aF0.8171875
aI923
aa(lp2069
F0.633984375
aF0.80859375
aI914
aa(lp2070
F0.634296875
aF0.8375
aI935
aa(lp2071
F0.6389843749999999
aF0.8140625
aI928
aa(lp2072
F0.629453125
aF0.8
aI924
aa(lp2073
F0.614453125
aF0.825
aI937
aa(lp2074
F0.653203125
aF0.8515625
aI925
aa(lp2075
F0.6507031249999999
aF0.83671875
aI935
aa(lp2076
F0.641640625
aF0.81015625
aI910
aa(lp2077
F0.6627343750000001
aF0.84453125
aI923
aa(lp2078
F0.6849999999999999
aF0.8375
aI917
aa(lp2079
F0.6435937500000001
aF0.86171875
aI919
aa(lp2080
F0.62734375
aF0.82109375
aI923
aa(lp2081
F0.63015625
aF0.8390625
aI914
aa(lp2082
F0.654765625
aF0.81171875
aI926
aa(lp2083
F0.632734375
aF0.8296875
aI932
aa(lp2084
F0.648828125
aF0.83984375
aI917
aa(lp2085
F0.647109375
aF0.8578125
aI921
aa(lp2086
F0.651015625
aF0.82578125
aI921
aa(lp2087
F0.6353906250000001
aF0.82578125
aI937
aa(lp2088
F0.6275781250000001
aF0.78671875
aI923
aa(lp2089
F0.6532812499999999
aF0.84375
aI914
aa(lp2090
F0.627734375
aF0.85546875
aI905
aa(lp2091
F0.6296875
aF0.8375
aI917
aa(lp2092
F0.6412500000000001
aF0.80703125
aI913
aa(lp2093
F0.6403125
aF0.84765625
aI914
aa(lp2094
F0.66546875
aF0.83828125
aI914
aa(lp2095
F0.66640625
aF0.83671875
aI932
aa(lp2096
F0.63875
aF0.815625
aI914
aa(lp2097
F0.6650781250000001
aF0.82734375
aI923
aa(lp2098
F0.6385937500000001
aF0.8171875
aI917
aa(lp2099
F0.65921875
aF0.8296875
aI929
aa(lp2100
F0.635
aF0.7984375
aI912
aa(lp2101
F0.636171875
aF0.81953125
aI907
aa(lp2102
F0.639921875
aF0.83515625
aI928
aa(lp2103
F0.65234375
aF0.86796875
aI910
aa(lp2104
F0.653671875
aF0.81484375
aI914
aa(lp2105
F0.616953125
aF0.80703125
aI904
aa(lp2106
F0.6237499999999999
aF0.82578125
aI925
aa(lp2107
F0.61921875
aF0.8546875
aI915
aa(lp2108
F0.6282031250000001
aF0.80546875
aI931
aa(lp2109
F0.61109375
aF0.78828125
aI930
aa(lp2110
F0.64328125
aF0.83359375
aI915
aa(lp2111
F0.6643749999999999
aF0.8796875
aI924
aa(lp2112
(lp2113
F0.2553125
aF0.728125
aI947
aa(lp2114
F0.24109375000000002
aF0.6359375
aI914
aa(lp2115
F0.2575
aF0.64375
aI918
aa(lp2116
F0.260625
aF0.5984375
aI915
aa(lp2117
F0.25140625
aF0.6421875
aI915
aa(lp2118
F0.288125
aF0.634375
aI926
aa(lp2119
F0.256875
aF0.603125
aI923
aa(lp2120
F0.20640625
aF0.5609375
aI914
aa(lp2121
F0.23937499999999998
aF0.6375
aI935
aa(lp2122
F0.23859375
aF0.5671875
aI928
aa(lp2123
F0.2234375
aF0.5625
aI924
aa(lp2124
F0.22718750000000001
aF0.61875
aI937
aa(lp2125
F0.25921875
aF0.6890625
aI925
aa(lp2126
F0.22921875
aF0.6140625
aI935
aa(lp2127
F0.23546875
aF0.5515625
aI910
aa(lp2128
F0.26921875000000006
aF0.6203125
aI923
aa(lp2129
F0.26703125
aF0.5640625
aI917
aa(lp2130
F0.25062500000000004
aF0.696875
aI919
aa(lp2131
F0.24859375
aF0.596875
aI923
aa(lp2132
F0.24593750000000003
aF0.603125
aI914
aa(lp2133
F0.23484375000000002
aF0.5734375
aI926
aa(lp2134
F0.24093749999999997
aF0.575
aI932
aa(lp2135
F0.23265624999999998
aF0.5953125
aI917
aa(lp2136
F0.23875000000000002
aF0.6125
aI921
aa(lp2137
F0.25093750000000004
aF0.6
aI921
aa(lp2138
F0.28031249999999996
aF0.55625
aI937
aa(lp2139
F0.2503125
aF0.559375
aI923
aa(lp2140
F0.28109375000000003
aF0.6109375
aI914
aa(lp2141
F0.2790625
aF0.6625
aI905
aa(lp2142
F0.2621875
aF0.6125
aI917
aa(lp2143
F0.24093749999999997
aF0.54375
aI913
aa(lp2144
F0.2528125
aF0.628125
aI914
aa(lp2145
F0.27156250000000004
aF0.58125
aI914
aa(lp2146
F0.27531249999999996
aF0.653125
aI932
aa(lp2147
F0.29359375
aF0.6109375
aI914
aa(lp2148
F0.2790625
aF0.56875
aI923
aa(lp2149
F0.23015625
aF0.5734375
aI917
aa(lp2150
F0.27671875
aF0.6546875
aI929
aa(lp2151
F0.24015625
aF0.5828125
aI912
aa(lp2152
F0.26703125
aF0.6265625
aI907
aa(lp2153
F0.27859375000000003
aF0.653125
aI928
aa(lp2154
F0.26609375
aF0.6515625
aI910
aa(lp2155
F0.25125000000000003
aF0.55
aI914
aa(lp2156
F0.2375
aF0.578125
aI904
aa(lp2157
F0.24468749999999997
aF0.646875
aI925
aa(lp2158
F0.25796874999999997
aF0.7015625
aI915
aa(lp2159
F0.2184375
aF0.534375
aI931
aa(lp2160
F0.24203125
aF0.5171875
aI930
aa(lp2161
F0.2428125
aF0.634375
aI915
aa(lp2162
F0.29140625
aF0.6953125
aI924
aatp2163
a((lp2164
(lp2165
F0.676484375
aF0.87578125
aI939
aa(lp2166
F0.6071093750000001
aF0.78828125
aI919
aa(lp2167
F0.61546875
aF0.7984375
aI918
aa(lp2168
F0.604921875
aF0.81328125
aI929
aa(lp2169
F0.621796875
aF0.82265625
aI917
aa(lp2170
F0.64359375
aF0.8140625
aI927
aa(lp2171
F0.610546875
aF0.834375
aI920
aa(lp2172
F0.6453125000000001
aF0.89140625
aI918
aa(lp2173
F0.6680468749999999
aF0.8671875
aI920
aa(lp2174
F0.6471874999999999
aF0.8640625
aI922
aa(lp2175
F0.6493749999999999
aF0.865625
aI919
aa(lp2176
F0.648203125
aF0.83046875
aI923
aa(lp2177
F0.65453125
aF0.8296875
aI923
aa(lp2178
F0.6558593749999999
aF0.840625
aI923
aa(lp2179
F0.6517968749999999
aF0.83359375
aI916
aa(lp2180
F0.6559375000000001
aF0.8
aI923
aa(lp2181
F0.653671875
aF0.8234375
aI933
aa(lp2182
F0.6578906250000002
aF0.84375
aI926
aa(lp2183
F0.6579687499999999
aF0.84375
aI917
aa(lp2184
F0.6461718750000001
aF0.79609375
aI923
aa(lp2185
F0.6442968750000001
aF0.81484375
aI915
aa(lp2186
F0.65140625
aF0.83046875
aI934
aa(lp2187
F0.639296875
aF0.83359375
aI929
aa(lp2188
F0.621640625
aF0.80859375
aI926
aa(lp2189
F0.636640625
aF0.80546875
aI918
aa(lp2190
F0.666640625
aF0.8578125
aI925
aa(lp2191
F0.64265625
aF0.82421875
aI912
aa(lp2192
F0.6348437500000002
aF0.8640625
aI928
aa(lp2193
F0.648046875
aF0.8484375
aI929
aa(lp2194
F0.6296875
aF0.82109375
aI915
aa(lp2195
F0.657734375
aF0.83671875
aI924
aa(lp2196
F0.648828125
aF0.840625
aI927
aa(lp2197
F0.6359374999999999
aF0.8046875
aI912
aa(lp2198
F0.6520312500000001
aF0.8390625
aI905
aa(lp2199
F0.6214062499999999
aF0.84921875
aI912
aa(lp2200
F0.654375
aF0.86328125
aI918
aa(lp2201
F0.62875
aF0.86484375
aI916
aa(lp2202
F0.6242968750000001
aF0.821875
aI922
aa(lp2203
F0.665546875
aF0.83828125
aI921
aa(lp2204
F0.647578125
aF0.85234375
aI918
aa(lp2205
F0.6442187500000001
aF0.83125
aI914
aa(lp2206
F0.61859375
aF0.8390625
aI922
aa(lp2207
F0.61671875
aF0.79375
aI911
aa(lp2208
F0.6385937500000001
aF0.84140625
aI919
aa(lp2209
F0.6446093749999999
aF0.82734375
aI920
aa(lp2210
F0.641796875
aF0.825
aI928
aa(lp2211
F0.6559375000000001
aF0.83203125
aI907
aa(lp2212
F0.6540625
aF0.81953125
aI916
aa(lp2213
F0.6525781249999999
aF0.83359375
aI918
aa(lp2214
F0.652578125
aF0.8421875
aI924
aa(lp2215
(lp2216
F0.2103125
aF0.69375
aI939
aa(lp2217
F0.2078125
aF0.5625
aI919
aa(lp2218
F0.20640625
aF0.5765625
aI918
aa(lp2219
F0.236875
aF0.6015625
aI929
aa(lp2220
F0.23984375000000002
aF0.6171875
aI917
aa(lp2221
F0.20953124999999997
aF0.6078125
aI927
aa(lp2222
F0.25359375
aF0.6671875
aI920
aa(lp2223
F0.27609374999999997
aF0.7390625
aI918
aa(lp2224
F0.259375
aF0.6875
aI920
aa(lp2225
F0.25625000000000003
aF0.671875
aI922
aa(lp2226
F0.28140624999999997
aF0.7171875
aI919
aa(lp2227
F0.2240625
aF0.61875
aI923
aa(lp2228
F0.24328124999999998
aF0.5984375
aI923
aa(lp2229
F0.26921875
aF0.6046875
aI923
aa(lp2230
F0.21953125
aF0.6015625
aI916
aa(lp2231
F0.24640625
aF0.5515625
aI923
aa(lp2232
F0.2453125
aF0.578125
aI933
aa(lp2233
F0.26249999999999996
aF0.625
aI926
aa(lp2234
F0.25609375
aF0.64375
aI917
aa(lp2235
F0.2453125
aF0.53125
aI923
aa(lp2236
F0.22640625
aF0.5328125
aI915
aa(lp2237
F0.23609375
aF0.5609375
aI934
aa(lp2238
F0.22890624999999998
aF0.5390625
aI929
aa(lp2239
F0.2471875
aF0.575
aI926
aa(lp2240
F0.24984375
aF0.5484375
aI918
aa(lp2241
F0.29343749999999996
aF0.675
aI925
aa(lp2242
F0.284375
aF0.640625
aI912
aa(lp2243
F0.27078125000000003
aF0.6671875
aI928
aa(lp2244
F0.26296875
aF0.6515625
aI929
aa(lp2245
F0.24625
aF0.584375
aI915
aa(lp2246
F0.25578125
aF0.6
aI924
aa(lp2247
F0.28078125
aF0.6140625
aI927
aa(lp2248
F0.23796875
aF0.5578125
aI912
aa(lp2249
F0.23796875000000003
aF0.6515625
aI905
aa(lp2250
F0.25203125
aF0.7140625
aI912
aa(lp2251
F0.27015625
aF0.6890625
aI918
aa(lp2252
F0.24625000000000002
aF0.63125
aI916
aa(lp2253
F0.25546875
aF0.5546875
aI922
aa(lp2254
F0.25765625000000003
aF0.6421875
aI921
aa(lp2255
F0.25953125
aF0.6234375
aI918
aa(lp2256
F0.23734375000000002
aF0.5640625
aI914
aa(lp2257
F0.20953124999999997
aF0.6078125
aI922
aa(lp2258
F0.25453125
aF0.5484375
aI911
aa(lp2259
F0.2303125
aF0.55625
aI919
aa(lp2260
F0.22890625
aF0.5546875
aI920
aa(lp2261
F0.23703125
aF0.5515625
aI928
aa(lp2262
F0.27578125000000003
aF0.6015625
aI907
aa(lp2263
F0.2425
aF0.60625
aI916
aa(lp2264
F0.2290625
aF0.63125
aI918
aa(lp2265
F0.26187499999999997
aF0.6328125
aI924
aatp2266
a((lp2267
(lp2268
F0.67203125
aF0.865625
aI958
aa(lp2269
F0.59203125
aF0.83046875
aI911
aa(lp2270
F0.6162500000000001
aF0.853125
aI936
aa(lp2271
F0.6612499999999999
aF0.85
aI920
aa(lp2272
F0.650390625
aF0.88671875
aI928
aa(lp2273
F0.6596875
aF0.871875
aI927
aa(lp2274
F0.6395312500000001
aF0.8390625
aI919
aa(lp2275
F0.645625
aF0.809375
aI928
aa(lp2276
F0.634375
aF0.8125
aI932
aa(lp2277
F0.63984375
aF0.81328125
aI911
aa(lp2278
F0.6275
aF0.86640625
aI924
aa(lp2279
F0.638671875
aF0.82421875
aI912
aa(lp2280
F0.64546875
aF0.85859375
aI928
aa(lp2281
F0.6371093750000001
aF0.809375
aI928
aa(lp2282
F0.626875
aF0.8125
aI929
aa(lp2283
F0.6427343749999999
aF0.87890625
aI917
aa(lp2284
F0.6428906249999999
aF0.81328125
aI933
aa(lp2285
F0.6265624999999999
aF0.7984375
aI923
aa(lp2286
F0.650234375
aF0.81796875
aI929
aa(lp2287
F0.65140625
aF0.8140625
aI926
aa(lp2288
F0.64171875
aF0.84921875
aI925
aa(lp2289
F0.646484375
aF0.83203125
aI922
aa(lp2290
F0.6596875
aF0.85703125
aI933
aa(lp2291
F0.6309375
aF0.8546875
aI920
aa(lp2292
F0.6492187500000001
aF0.8125
aI911
aa(lp2293
F0.6303125
aF0.8078125
aI922
aa(lp2294
F0.6234375
aF0.80625
aI913
aa(lp2295
F0.649921875
aF0.85234375
aI923
aa(lp2296
F0.65640625
aF0.84375
aI910
aa(lp2297
F0.6534375
aF0.834375
aI924
aa(lp2298
F0.6910156249999999
aF0.82109375
aI912
aa(lp2299
F0.6714062499999999
aF0.86484375
aI932
aa(lp2300
F0.653515625
aF0.86328125
aI916
aa(lp2301
F0.65109375
aF0.840625
aI916
aa(lp2302
F0.6764843749999999
aF0.83671875
aI916
aa(lp2303
F0.628828125
aF0.80546875
aI922
aa(lp2304
F0.65390625
aF0.84453125
aI918
aa(lp2305
F0.6346875
aF0.8171875
aI912
aa(lp2306
F0.6292187499999999
aF0.83359375
aI913
aa(lp2307
F0.607265625
aF0.81796875
aI923
aa(lp2308
F0.62609375
aF0.8515625
aI933
aa(lp2309
F0.6484375
aF0.82265625
aI936
aa(lp2310
F0.6414062500000001
aF0.8046875
aI926
aa(lp2311
F0.6360937499999999
aF0.81875
aI923
aa(lp2312
F0.65109375
aF0.81796875
aI918
aa(lp2313
F0.619609375
aF0.78125
aI932
aa(lp2314
F0.643515625
aF0.8
aI930
aa(lp2315
F0.62953125
aF0.81484375
aI930
aa(lp2316
F0.62703125
aF0.8078125
aI927
aa(lp2317
F0.657421875
aF0.825
aI927
aa(lp2318
(lp2319
F0.2403125
aF0.64375
aI958
aa(lp2320
F0.213125
aF0.634375
aI911
aa(lp2321
F0.23687499999999997
aF0.6625
aI936
aa(lp2322
F0.27609375
aF0.615625
aI920
aa(lp2323
F0.20703125
aF0.7109375
aI928
aa(lp2324
F0.27390625
aF0.6671875
aI927
aa(lp2325
F0.24
aF0.6
aI919
aa(lp2326
F0.25953125
aF0.5609375
aI928
aa(lp2327
F0.2621875
aF0.596875
aI932
aa(lp2328
F0.24546875
aF0.5609375
aI911
aa(lp2329
F0.26796875000000003
aF0.7109375
aI924
aa(lp2330
F0.2503125
aF0.621875
aI912
aa(lp2331
F0.24656250000000002
aF0.64375
aI928
aa(lp2332
F0.23453125
aF0.5296875
aI928
aa(lp2333
F0.25234375
aF0.5703125
aI929
aa(lp2334
F0.24828125
aF0.6734375
aI917
aa(lp2335
F0.23640625
aF0.5734375
aI933
aa(lp2336
F0.21749999999999997
aF0.5609375
aI923
aa(lp2337
F0.25578125
aF0.5671875
aI929
aa(lp2338
F0.23046875
aF0.6328125
aI926
aa(lp2339
F0.25296875
aF0.6265625
aI925
aa(lp2340
F0.21140625
aF0.6203125
aI922
aa(lp2341
F0.27078125
aF0.6359375
aI933
aa(lp2342
F0.21796875000000002
aF0.6640625
aI920
aa(lp2343
F0.22328125000000001
aF0.5484375
aI911
aa(lp2344
F0.24906250000000002
aF0.60625
aI922
aa(lp2345
F0.23828125000000003
aF0.5859375
aI913
aa(lp2346
F0.24546875
aF0.6078125
aI923
aa(lp2347
F0.2278125
aF0.565625
aI910
aa(lp2348
F0.26703125
aF0.5796875
aI924
aa(lp2349
F0.27578125
aF0.571875
aI912
aa(lp2350
F0.25984375000000004
aF0.6515625
aI932
aa(lp2351
F0.20515624999999998
aF0.6359375
aI916
aa(lp2352
F0.22609374999999998
aF0.6453125
aI916
aa(lp2353
F0.23296875
aF0.5921875
aI916
aa(lp2354
F0.224375
aF0.521875
aI922
aa(lp2355
F0.2375
aF0.5796875
aI918
aa(lp2356
F0.22421875
aF0.5875
aI912
aa(lp2357
F0.21890624999999997
aF0.6078125
aI913
aa(lp2358
F0.20828125
aF0.6046875
aI923
aa(lp2359
F0.23171875
aF0.6046875
aI933
aa(lp2360
F0.22078125
aF0.5734375
aI936
aa(lp2361
F0.22
aF0.503125
aI926
aa(lp2362
F0.20765625000000001
aF0.5328125
aI923
aa(lp2363
F0.22374999999999998
aF0.54375
aI918
aa(lp2364
F0.20953124999999997
aF0.5296875
aI932
aa(lp2365
F0.21765625000000002
aF0.5265625
aI930
aa(lp2366
F0.215
aF0.5859375
aI930
aa(lp2367
F0.20234375
aF0.5546875
aI927
aa(lp2368
F0.23421875000000003
aF0.5640625
aI927
aatp2369
a((lp2370
(lp2371
F0.673984375
aF0.89296875
aI949
aa(lp2372
F0.604921875
aF0.8125
aI915
aa(lp2373
F0.6221093750000001
aF0.81796875
aI917
aa(lp2374
F0.650546875
aF0.86953125
aI928
aa(lp2375
F0.623046875
aF0.809375
aI924
aa(lp2376
F0.643125
aF0.81953125
aI928
aa(lp2377
F0.626171875
aF0.81875
aI921
aa(lp2378
F0.6390625
aF0.8046875
aI923
aa(lp2379
F0.623984375
aF0.81484375
aI907
aa(lp2380
F0.63234375
aF0.85625
aI921
aa(lp2381
F0.6227343750000002
aF0.84296875
aI921
aa(lp2382
F0.640390625
aF0.83046875
aI923
aa(lp2383
F0.6555468750000001
aF0.83515625
aI920
aa(lp2384
F0.6667968750000001
aF0.83984375
aI912
aa(lp2385
F0.6781250000000001
aF0.8921875
aI915
aa(lp2386
F0.676953125
aF0.8875
aI919
aa(lp2387
F0.649296875
aF0.8515625
aI901
aa(lp2388
F0.6478125
aF0.83515625
aI911
aa(lp2389
F0.6478125
aF0.84375
aI920
aa(lp2390
F0.651484375
aF0.82265625
aI919
aa(lp2391
F0.6409375
aF0.81796875
aI916
aa(lp2392
F0.656640625
aF0.83984375
aI918
aa(lp2393
F0.6478906249999999
aF0.84296875
aI916
aa(lp2394
F0.66578125
aF0.890625
aI909
aa(lp2395
F0.686953125
aF0.88046875
aI908
aa(lp2396
F0.64515625
aF0.84609375
aI900
aa(lp2397
F0.66203125
aF0.8171875
aI934
aa(lp2398
F0.66515625
aF0.8421875
aI917
aa(lp2399
F0.63546875
aF0.840625
aI914
aa(lp2400
F0.63140625
aF0.81171875
aI911
aa(lp2401
F0.65828125
aF0.84140625
aI913
aa(lp2402
F0.643046875
aF0.8203125
aI920
aa(lp2403
F0.6457031249999999
aF0.825
aI916
aa(lp2404
F0.616484375
aF0.8125
aI920
aa(lp2405
F0.6307031249999999
aF0.8109375
aI917
aa(lp2406
F0.650234375
aF0.81875
aI933
aa(lp2407
F0.5985937499999999
aF0.80390625
aI915
aa(lp2408
F0.6291406250000001
aF0.82734375
aI935
aa(lp2409
F0.63890625
aF0.82421875
aI936
aa(lp2410
F0.6321093750000001
aF0.82109375
aI922
aa(lp2411
F0.6092968750000001
aF0.79765625
aI929
aa(lp2412
F0.6354687499999999
aF0.85
aI927
aa(lp2413
F0.6525781249999999
aF0.83515625
aI912
aa(lp2414
F0.64234375
aF0.85
aI925
aa(lp2415
F0.63140625
aF0.80390625
aI911
aa(lp2416
F0.6403125000000001
aF0.84296875
aI912
aa(lp2417
F0.6432031250000001
aF0.84140625
aI912
aa(lp2418
F0.6492968750000001
aF0.84375
aI921
aa(lp2419
F0.659765625
aF0.825
aI919
aa(lp2420
F0.6497656249999999
aF0.86171875
aI918
aa(lp2421
(lp2422
F0.20640625
aF0.7328125
aI949
aa(lp2423
F0.19374999999999998
aF0.609375
aI915
aa(lp2424
F0.2421875
aF0.578125
aI917
aa(lp2425
F0.24296875
aF0.6484375
aI928
aa(lp2426
F0.21531250000000002
aF0.58125
aI924
aa(lp2427
F0.23015625
aF0.5890625
aI928
aa(lp2428
F0.2275
aF0.6
aI921
aa(lp2429
F0.2184375
aF0.565625
aI923
aa(lp2430
F0.26187499999999997
aF0.615625
aI907
aa(lp2431
F0.24437500000000004
aF0.665625
aI921
aa(lp2432
F0.25140625
aF0.6265625
aI921
aa(lp2433
F0.24906250000000002
aF0.5875
aI923
aa(lp2434
F0.26875
aF0.6421875
aI920
aa(lp2435
F0.26921875000000006
aF0.6203125
aI912
aa(lp2436
F0.29656250000000006
aF0.690625
aI915
aa(lp2437
F0.3071875
aF0.7109375
aI919
aa(lp2438
F0.28953125
aF0.6984375
aI901
aa(lp2439
F0.24328125
aF0.5359375
aI911
aa(lp2440
F0.25812499999999994
aF0.6375
aI920
aa(lp2441
F0.20828125
aF0.5734375
aI919
aa(lp2442
F0.23359375
aF0.5390625
aI916
aa(lp2443
F0.22562500000000002
aF0.634375
aI918
aa(lp2444
F0.24093749999999997
aF0.60625
aI916
aa(lp2445
F0.29109375
aF0.715625
aI909
aa(lp2446
F0.30984375000000003
aF0.6828125
aI908
aa(lp2447
F0.27140624999999996
aF0.5984375
aI900
aa(lp2448
F0.2590625
aF0.58125
aI934
aa(lp2449
F0.27234375
aF0.6671875
aI917
aa(lp2450
F0.22593749999999999
aF0.646875
aI914
aa(lp2451
F0.235625
aF0.596875
aI911
aa(lp2452
F0.2325
aF0.596875
aI913
aa(lp2453
F0.254375
aF0.58125
aI920
aa(lp2454
F0.289375
aF0.684375
aI916
aa(lp2455
F0.226875
aF0.60625
aI920
aa(lp2456
F0.22390625000000003
aF0.5734375
aI917
aa(lp2457
F0.23671875
aF0.5234375
aI933
aa(lp2458
F0.22421875000000002
aF0.5703125
aI915
aa(lp2459
F0.21765625000000002
aF0.6046875
aI935
aa(lp2460
F0.21890625000000002
aF0.5140625
aI936
aa(lp2461
F0.24500000000000002
aF0.596875
aI922
aa(lp2462
F0.22625
aF0.565625
aI929
aa(lp2463
F0.23390625
aF0.6296875
aI927
aa(lp2464
F0.25703125
aF0.5859375
aI912
aa(lp2465
F0.26375000000000004
aF0.628125
aI925
aa(lp2466
F0.22156250000000002
aF0.534375
aI911
aa(lp2467
F0.23796875000000003
aF0.653125
aI912
aa(lp2468
F0.24312499999999998
aF0.678125
aI912
aa(lp2469
F0.26609375
aF0.6828125
aI921
aa(lp2470
F0.2521875
aF0.5875
aI919
aa(lp2471
F0.28218750000000004
aF0.69375
aI918
aatp2472
a((lp2473
(lp2474
F0.6796875
aF0.8828125
aI948
aa(lp2475
F0.59453125
aF0.80703125
aI922
aa(lp2476
F0.62109375
aF0.8359375
aI930
aa(lp2477
F0.6413281249999999
aF0.85234375
aI921
aa(lp2478
F0.6067187500000001
aF0.8015625
aI904
aa(lp2479
F0.6242187499999999
aF0.7984375
aI913
aa(lp2480
F0.635
aF0.8296875
aI925
aa(lp2481
F0.63390625
aF0.8171875
aI912
aa(lp2482
F0.627421875
aF0.796875
aI930
aa(lp2483
F0.6390625000000001
aF0.8453125
aI913
aa(lp2484
F0.631484375
aF0.865625
aI908
aa(lp2485
F0.663515625
aF0.85
aI924
aa(lp2486
F0.6690624999999999
aF0.8484375
aI916
aa(lp2487
F0.6711718750000001
aF0.84375
aI921
aa(lp2488
F0.660390625
aF0.84921875
aI915
aa(lp2489
F0.6526562499999999
aF0.8328125
aI908
aa(lp2490
F0.6332031250000001
aF0.83359375
aI907
aa(lp2491
F0.6520312500000001
aF0.83125
aI908
aa(lp2492
F0.661640625
aF0.86015625
aI911
aa(lp2493
F0.69703125
aF0.896875
aI915
aa(lp2494
F0.675390625
aF0.871875
aI921
aa(lp2495
F0.672265625
aF0.86328125
aI915
aa(lp2496
F0.6928125
aF0.83046875
aI915
aa(lp2497
F0.6764843749999999
aF0.85234375
aI921
aa(lp2498
F0.6792968749999999
aF0.85625
aI914
aa(lp2499
F0.6575
aF0.8546875
aI909
aa(lp2500
F0.670546875
aF0.8421875
aI905
aa(lp2501
F0.642734375
aF0.83515625
aI925
aa(lp2502
F0.64578125
aF0.8484375
aI920
aa(lp2503
F0.67203125
aF0.82734375
aI923
aa(lp2504
F0.67015625
aF0.80703125
aI927
aa(lp2505
F0.653828125
aF0.83671875
aI928
aa(lp2506
F0.660234375
aF0.859375
aI925
aa(lp2507
F0.6471874999999999
aF0.85703125
aI936
aa(lp2508
F0.6666406250000001
aF0.85078125
aI925
aa(lp2509
F0.67609375
aF0.85625
aI901
aa(lp2510
F0.6707812500000001
aF0.878125
aI912
aa(lp2511
F0.696796875
aF0.8609375
aI906
aa(lp2512
F0.6950000000000001
aF0.8390625
aI899
aa(lp2513
F0.6693749999999999
aF0.81484375
aI912
aa(lp2514
F0.658671875
aF0.8359375
aI907
aa(lp2515
F0.611796875
aF0.80390625
aI914
aa(lp2516
F0.636015625
aF0.8359375
aI923
aa(lp2517
F0.639140625
aF0.78828125
aI918
aa(lp2518
F0.6124999999999999
aF0.84453125
aI918
aa(lp2519
F0.616328125
aF0.8765625
aI908
aa(lp2520
F0.6122656249999999
aF0.8234375
aI923
aa(lp2521
F0.617734375
aF0.83984375
aI915
aa(lp2522
F0.626171875
aF0.83203125
aI912
aa(lp2523
F0.6453125
aF0.8515625
aI914
aa(lp2524
(lp2525
F0.2375
aF0.71875
aI948
aa(lp2526
F0.2040625
aF0.5859375
aI922
aa(lp2527
F0.20468750000000002
aF0.59375
aI930
aa(lp2528
F0.23125
aF0.640625
aI921
aa(lp2529
F0.233125
aF0.590625
aI904
aa(lp2530
F0.2240625
aF0.540625
aI913
aa(lp2531
F0.24156249999999999
aF0.56875
aI925
aa(lp2532
F0.24515625000000002
aF0.5484375
aI912
aa(lp2533
F0.23140625
aF0.4984375
aI930
aa(lp2534
F0.24437500000000004
aF0.65
aI913
aa(lp2535
F0.28828125
aF0.6953125
aI908
aa(lp2536
F0.2846875
aF0.653125
aI924
aa(lp2537
F0.25843750000000004
aF0.61875
aI916
aa(lp2538
F0.30453125
aF0.628125
aI921
aa(lp2539
F0.276875
aF0.653125
aI915
aa(lp2540
F0.26578125
aF0.6078125
aI908
aa(lp2541
F0.26125
aF0.621875
aI907
aa(lp2542
F0.29765625
aF0.6171875
aI908
aa(lp2543
F0.2946875
aF0.678125
aI911
aa(lp2544
F0.36609375000000005
aF0.7609375
aI915
aa(lp2545
F0.29234374999999996
aF0.6234375
aI921
aa(lp2546
F0.27499999999999997
aF0.671875
aI915
aa(lp2547
F0.26734375
aF0.5609375
aI915
aa(lp2548
F0.3215625
aF0.628125
aI921
aa(lp2549
F0.30453125
aF0.6265625
aI914
aa(lp2550
F0.28984375
aF0.6328125
aI909
aa(lp2551
F0.271875
aF0.609375
aI905
aa(lp2552
F0.26796875
aF0.6328125
aI925
aa(lp2553
F0.27359374999999997
aF0.6390625
aI920
aa(lp2554
F0.28515625
aF0.5703125
aI923
aa(lp2555
F0.27484375000000005
aF0.5171875
aI927
aa(lp2556
F0.27796875
aF0.5796875
aI928
aa(lp2557
F0.27265625
aF0.6796875
aI925
aa(lp2558
F0.2871875
aF0.675
aI936
aa(lp2559
F0.2728125
aF0.6625
aI925
aa(lp2560
F0.28890625000000003
aF0.6578125
aI901
aa(lp2561
F0.28546875
aF0.7234375
aI912
aa(lp2562
F0.25828125
aF0.6203125
aI906
aa(lp2563
F0.30640625
aF0.5609375
aI899
aa(lp2564
F0.29734375
aF0.5578125
aI912
aa(lp2565
F0.26546875000000003
aF0.6109375
aI907
aa(lp2566
F0.21078125
aF0.5796875
aI914
aa(lp2567
F0.22484374999999998
aF0.565625
aI923
aa(lp2568
F0.25453125
aF0.5328125
aI918
aa(lp2569
F0.228125
aF0.640625
aI918
aa(lp2570
F0.23046875
aF0.7109375
aI908
aa(lp2571
F0.213125
aF0.6046875
aI923
aa(lp2572
F0.21359375
aF0.5984375
aI915
aa(lp2573
F0.24875
aF0.621875
aI912
aa(lp2574
F0.26453125
aF0.6515625
aI914
aatp2575
a((lp2576
(lp2577
F0.678984375
aF0.88984375
aI952
aa(lp2578
F0.6065625
aF0.79453125
aI907
aa(lp2579
F0.6514062500000001
aF0.8390625
aI919
aa(lp2580
F0.6396875000000001
aF0.8078125
aI915
aa(lp2581
F0.634609375
aF0.85703125
aI914
aa(lp2582
F0.6328125
aF0.84375
aI911
aa(lp2583
F0.63078125
aF0.81015625
aI935
aa(lp2584
F0.6374218749999999
aF0.78984375
aI928
aa(lp2585
F0.645859375
aF0.79140625
aI932
aa(lp2586
F0.6477343750000001
aF0.81171875
aI921
aa(lp2587
F0.612578125
aF0.8125
aI915
aa(lp2588
F0.63625
aF0.8046875
aI925
aa(lp2589
F0.643125
aF0.8421875
aI927
aa(lp2590
F0.6198437499999999
aF0.809375
aI923
aa(lp2591
F0.632265625
aF0.77265625
aI917
aa(lp2592
F0.65390625
aF0.8359375
aI924
aa(lp2593
F0.642578125
aF0.82421875
aI926
aa(lp2594
F0.650546875
aF0.83125
aI916
aa(lp2595
F0.62828125
aF0.8125
aI915
aa(lp2596
F0.6388281250000001
aF0.83046875
aI924
aa(lp2597
F0.6272656249999999
aF0.853125
aI916
aa(lp2598
F0.63296875
aF0.828125
aI921
aa(lp2599
F0.645078125
aF0.80859375
aI923
aa(lp2600
F0.647421875
aF0.85390625
aI908
aa(lp2601
F0.6203124999999999
aF0.86171875
aI933
aa(lp2602
F0.648359375
aF0.83828125
aI912
aa(lp2603
F0.6346874999999998
aF0.825
aI907
aa(lp2604
F0.67875
aF0.85390625
aI929
aa(lp2605
F0.631875
aF0.8140625
aI921
aa(lp2606
F0.662421875
aF0.8390625
aI917
aa(lp2607
F0.645
aF0.8390625
aI920
aa(lp2608
F0.64703125
aF0.8265625
aI918
aa(lp2609
F0.66234375
aF0.80625
aI919
aa(lp2610
F0.6354687499999999
aF0.8328125
aI928
aa(lp2611
F0.6328125
aF0.83125
aI923
aa(lp2612
F0.613515625
aF0.81015625
aI912
aa(lp2613
F0.6360937499999999
aF0.81953125
aI926
aa(lp2614
F0.628359375
aF0.81015625
aI913
aa(lp2615
F0.673671875
aF0.83515625
aI925
aa(lp2616
F0.63875
aF0.846875
aI926
aa(lp2617
F0.6285937500000001
aF0.8
aI946
aa(lp2618
F0.658984375
aF0.81796875
aI920
aa(lp2619
F0.65296875
aF0.8234375
aI922
aa(lp2620
F0.6557812500000001
aF0.8421875
aI925
aa(lp2621
F0.6428125
aF0.82734375
aI915
aa(lp2622
F0.661875
aF0.8421875
aI918
aa(lp2623
F0.65625
aF0.80546875
aI927
aa(lp2624
F0.682734375
aF0.81328125
aI917
aa(lp2625
F0.65453125
aF0.79296875
aI922
aa(lp2626
F0.657890625
aF0.828125
aI929
aa(lp2627
(lp2628
F0.22468749999999998
aF0.70625
aI952
aa(lp2629
F0.24078125
aF0.5453125
aI907
aa(lp2630
F0.29859375
aF0.6546875
aI919
aa(lp2631
F0.23109375
aF0.55
aI915
aa(lp2632
F0.25718749999999996
aF0.63125
aI914
aa(lp2633
F0.28015625000000005
aF0.6984375
aI911
aa(lp2634
F0.26171875
aF0.6171875
aI935
aa(lp2635
F0.2246875
aF0.534375
aI928
aa(lp2636
F0.23609375000000002
aF0.5453125
aI932
aa(lp2637
F0.24609375
aF0.5703125
aI921
aa(lp2638
F0.23328125000000002
aF0.5734375
aI915
aa(lp2639
F0.23171875000000003
aF0.559375
aI925
aa(lp2640
F0.23671874999999998
aF0.6328125
aI927
aa(lp2641
F0.21796875000000002
aF0.6015625
aI923
aa(lp2642
F0.21796875
aF0.4765625
aI917
aa(lp2643
F0.24140625000000002
aF0.6015625
aI924
aa(lp2644
F0.268125
aF0.584375
aI926
aa(lp2645
F0.27578125
aF0.5703125
aI916
aa(lp2646
F0.25125000000000003
aF0.534375
aI915
aa(lp2647
F0.28250000000000003
aF0.58125
aI924
aa(lp2648
F0.23953125000000003
aF0.6828125
aI916
aa(lp2649
F0.27625
aF0.628125
aI921
aa(lp2650
F0.27390625
aF0.5734375
aI923
aa(lp2651
F0.24375
aF0.59375
aI908
aa(lp2652
F0.24828124999999998
aF0.628125
aI933
aa(lp2653
F0.26578124999999997
aF0.5765625
aI912
aa(lp2654
F0.26921875
aF0.6359375
aI907
aa(lp2655
F0.3003125
aF0.621875
aI929
aa(lp2656
F0.27234375
aF0.6203125
aI921
aa(lp2657
F0.31453125000000004
aF0.6203125
aI917
aa(lp2658
F0.2778125
aF0.628125
aI920
aa(lp2659
F0.2734375
aF0.546875
aI918
aa(lp2660
F0.27984374999999995
aF0.5453125
aI919
aa(lp2661
F0.27046875
aF0.609375
aI928
aa(lp2662
F0.2384375
aF0.584375
aI923
aa(lp2663
F0.23062500000000002
aF0.553125
aI912
aa(lp2664
F0.2640625
aF0.640625
aI926
aa(lp2665
F0.24484375
aF0.6140625
aI913
aa(lp2666
F0.28625
aF0.590625
aI925
aa(lp2667
F0.25953125
aF0.6390625
aI926
aa(lp2668
F0.21671875000000002
aF0.5359375
aI946
aa(lp2669
F0.2396875
aF0.5875
aI920
aa(lp2670
F0.26765625000000004
aF0.590625
aI922
aa(lp2671
F0.27578125
aF0.634375
aI925
aa(lp2672
F0.2515625
aF0.5625
aI915
aa(lp2673
F0.25125000000000003
aF0.596875
aI918
aa(lp2674
F0.25078125
aF0.5859375
aI927
aa(lp2675
F0.28718750000000004
aF0.58125
aI917
aa(lp2676
F0.25953125
aF0.5609375
aI922
aa(lp2677
F0.27046875
aF0.6234375
aI929
aatp2678
a((lp2679
(lp2680
F0.674453125
aF0.90390625
aI941
aa(lp2681
F0.6092187499999999
aF0.8296875
aI911
aa(lp2682
F0.640703125
aF0.84296875
aI913
aa(lp2683
F0.636640625
aF0.84453125
aI925
aa(lp2684
F0.65046875
aF0.84765625
aI916
aa(lp2685
F0.648828125
aF0.84140625
aI928
aa(lp2686
F0.648671875
aF0.8421875
aI913
aa(lp2687
F0.6634374999999999
aF0.85
aI919
aa(lp2688
F0.6575000000000001
aF0.84765625
aI921
aa(lp2689
F0.656484375
aF0.87265625
aI917
aa(lp2690
F0.6736718749999999
aF0.84921875
aI912
aa(lp2691
F0.6660156249999999
aF0.8953125
aI912
aa(lp2692
F0.6616406249999999
aF0.82890625
aI908
aa(lp2693
F0.685
aF0.88515625
aI922
aa(lp2694
F0.693515625
aF0.86171875
aI915
aa(lp2695
F0.649140625
aF0.8609375
aI918
aa(lp2696
F0.6457812500000001
aF0.8390625
aI928
aa(lp2697
F0.6671875
aF0.85234375
aI928
aa(lp2698
F0.65734375
aF0.840625
aI917
aa(lp2699
F0.652109375
aF0.84609375
aI920
aa(lp2700
F0.64203125
aF0.8453125
aI921
aa(lp2701
F0.62671875
aF0.85
aI911
aa(lp2702
F0.62125
aF0.8421875
aI912
aa(lp2703
F0.6340625
aF0.846875
aI918
aa(lp2704
F0.653203125
aF0.87421875
aI926
aa(lp2705
F0.666640625
aF0.90390625
aI910
aa(lp2706
F0.69578125
aF0.8703125
aI915
aa(lp2707
F0.710703125
aF0.90078125
aI914
aa(lp2708
F0.70953125
aF0.88125
aI920
aa(lp2709
F0.6803906249999999
aF0.86875
aI915
aa(lp2710
F0.65703125
aF0.86015625
aI923
aa(lp2711
F0.63859375
aF0.85859375
aI913
aa(lp2712
F0.6554687499999999
aF0.84375
aI922
aa(lp2713
F0.6509375
aF0.88125
aI924
aa(lp2714
F0.681875
aF0.8609375
aI918
aa(lp2715
F0.652109375
aF0.83125
aI917
aa(lp2716
F0.6578906250000001
aF0.853125
aI903
aa(lp2717
F0.6784375
aF0.8796875
aI910
aa(lp2718
F0.6682031250000001
aF0.86640625
aI927
aa(lp2719
F0.66296875
aF0.87265625
aI902
aa(lp2720
F0.6713281249999999
aF0.85703125
aI913
aa(lp2721
F0.694375
aF0.9
aI922
aa(lp2722
F0.677265625
aF0.86796875
aI906
aa(lp2723
F0.670390625
aF0.8515625
aI933
aa(lp2724
F0.67328125
aF0.8609375
aI921
aa(lp2725
F0.6928125
aF0.84609375
aI926
aa(lp2726
F0.69828125
aF0.86875
aI921
aa(lp2727
F0.721953125
aF0.87578125
aI906
aa(lp2728
F0.67703125
aF0.8484375
aI909
aa(lp2729
F0.6906249999999999
aF0.859375
aI919
aa(lp2730
(lp2731
F0.21265625000000002
aF0.7328125
aI941
aa(lp2732
F0.24203125000000003
aF0.6421875
aI911
aa(lp2733
F0.21906249999999997
aF0.621875
aI913
aa(lp2734
F0.24375000000000002
aF0.640625
aI925
aa(lp2735
F0.2721875
aF0.6375
aI916
aa(lp2736
F0.2596875
aF0.621875
aI928
aa(lp2737
F0.27828125
aF0.6546875
aI913
aa(lp2738
F0.26359374999999996
aF0.6765625
aI919
aa(lp2739
F0.24046875
aF0.5796875
aI921
aa(lp2740
F0.29421875
aF0.6671875
aI917
aa(lp2741
F0.28890625000000003
aF0.6109375
aI912
aa(lp2742
F0.3025
aF0.709375
aI912
aa(lp2743
F0.29281250000000003
aF0.571875
aI908
aa(lp2744
F0.31203125
aF0.6765625
aI922
aa(lp2745
F0.30593750000000003
aF0.659375
aI915
aa(lp2746
F0.29546874999999995
aF0.6390625
aI918
aa(lp2747
F0.24171875
aF0.6140625
aI928
aa(lp2748
F0.29640625000000004
aF0.6609375
aI928
aa(lp2749
F0.2759375
aF0.6
aI917
aa(lp2750
F0.23750000000000002
aF0.625
aI920
aa(lp2751
F0.24140625
aF0.6484375
aI921
aa(lp2752
F0.27359375
aF0.6703125
aI911
aa(lp2753
F0.27875
aF0.696875
aI912
aa(lp2754
F0.280625
aF0.678125
aI918
aa(lp2755
F0.26937500000000003
aF0.696875
aI926
aa(lp2756
F0.28578125
aF0.7671875
aI910
aa(lp2757
F0.31828124999999996
aF0.6765625
aI915
aa(lp2758
F0.32999999999999996
aF0.746875
aI914
aa(lp2759
F0.35312499999999997
aF0.703125
aI920
aa(lp2760
F0.35453125
aF0.6890625
aI915
aa(lp2761
F0.29281250000000003
aF0.665625
aI923
aa(lp2762
F0.278125
aF0.671875
aI913
aa(lp2763
F0.27859375000000003
aF0.6671875
aI922
aa(lp2764
F0.30484374999999997
aF0.7015625
aI924
aa(lp2765
F0.294375
aF0.634375
aI918
aa(lp2766
F0.281875
aF0.603125
aI917
aa(lp2767
F0.286875
aF0.6625
aI903
aa(lp2768
F0.32296875
aF0.7078125
aI910
aa(lp2769
F0.30921875
aF0.6890625
aI927
aa(lp2770
F0.32734375
aF0.6953125
aI902
aa(lp2771
F0.25062500000000004
aF0.68125
aI913
aa(lp2772
F0.31765625
aF0.7140625
aI922
aa(lp2773
F0.338125
aF0.665625
aI906
aa(lp2774
F0.29296875
aF0.6171875
aI933
aa(lp2775
F0.300625
aF0.634375
aI921
aa(lp2776
F0.27671875
aF0.6078125
aI926
aa(lp2777
F0.305625
aF0.678125
aI921
aa(lp2778
F0.305
aF0.6375
aI906
aa(lp2779
F0.30765625
aF0.6265625
aI909
aa(lp2780
F0.30984375000000003
aF0.6515625
aI919
aatp2781
a((lp2782
(lp2783
F0.68765625
aF0.88125
aI943
aa(lp2784
F0.60796875
aF0.84296875
aI923
aa(lp2785
F0.6533593750000001
aF0.84140625
aI927
aa(lp2786
F0.6297656250000001
aF0.8203125
aI917
aa(lp2787
F0.64890625
aF0.83125
aI927
aa(lp2788
F0.6312500000000001
aF0.81328125
aI916
aa(lp2789
F0.630390625
aF0.79296875
aI923
aa(lp2790
F0.6253124999999999
aF0.7796875
aI925
aa(lp2791
F0.621015625
aF0.7921875
aI914
aa(lp2792
F0.6373437500000001
aF0.79140625
aI926
aa(lp2793
F0.5987499999999999
aF0.7875
aI925
aa(lp2794
F0.6381249999999999
aF0.7984375
aI914
aa(lp2795
F0.660234375
aF0.78828125
aI921
aa(lp2796
F0.6303124999999999
aF0.81640625
aI923
aa(lp2797
F0.6346875
aF0.81875
aI913
aa(lp2798
F0.62734375
aF0.84375
aI924
aa(lp2799
F0.620546875
aF0.8265625
aI914
aa(lp2800
F0.64140625
aF0.82109375
aI924
aa(lp2801
F0.6353125
aF0.81953125
aI934
aa(lp2802
F0.609921875
aF0.78359375
aI918
aa(lp2803
F0.6355468750000001
aF0.8328125
aI928
aa(lp2804
F0.61234375
aF0.85390625
aI929
aa(lp2805
F0.6246875
aF0.83125
aI908
aa(lp2806
F0.6239843749999999
aF0.82265625
aI935
aa(lp2807
F0.653125
aF0.84375
aI916
aa(lp2808
F0.6537499999999999
aF0.83984375
aI924
aa(lp2809
F0.640859375
aF0.81875
aI924
aa(lp2810
F0.6390625000000001
aF0.828125
aI923
aa(lp2811
F0.653671875
aF0.80703125
aI926
aa(lp2812
F0.674921875
aF0.85234375
aI914
aa(lp2813
F0.6475000000000001
aF0.8609375
aI917
aa(lp2814
F0.641015625
aF0.840625
aI916
aa(lp2815
F0.6459374999999999
aF0.8765625
aI923
aa(lp2816
F0.5964843750000001
aF0.834375
aI929
aa(lp2817
F0.6415625
aF0.859375
aI917
aa(lp2818
F0.6380468749999999
aF0.86171875
aI924
aa(lp2819
F0.6634375
aF0.8421875
aI921
aa(lp2820
F0.636171875
aF0.8421875
aI920
aa(lp2821
F0.673671875
aF0.85703125
aI914
aa(lp2822
F0.6497656249999999
aF0.84765625
aI919
aa(lp2823
F0.6446875
aF0.8109375
aI924
aa(lp2824
F0.667734375
aF0.8546875
aI920
aa(lp2825
F0.6603125
aF0.8421875
aI918
aa(lp2826
F0.649375
aF0.834375
aI924
aa(lp2827
F0.6336718750000001
aF0.8046875
aI916
aa(lp2828
F0.6420312499999999
aF0.79921875
aI920
aa(lp2829
F0.6546875
aF0.8671875
aI923
aa(lp2830
F0.6215625000000001
aF0.8390625
aI925
aa(lp2831
F0.5921875
aF0.79765625
aI910
aa(lp2832
F0.640859375
aF0.85703125
aI923
aa(lp2833
(lp2834
F0.2653125
aF0.721875
aI943
aa(lp2835
F0.24359375
aF0.6421875
aI923
aa(lp2836
F0.23015625
aF0.6046875
aI927
aa(lp2837
F0.2296875
aF0.59375
aI917
aa(lp2838
F0.2396875
aF0.5875
aI927
aa(lp2839
F0.21671874999999996
aF0.5828125
aI916
aa(lp2840
F0.22593749999999999
aF0.5390625
aI923
aa(lp2841
F0.20750000000000002
aF0.48750000000000004
aI925
aa(lp2842
F0.18734375
aF0.565625
aI914
aa(lp2843
F0.17921874999999998
aF0.5203125
aI926
aa(lp2844
F0.20796875
aF0.5453125
aI925
aa(lp2845
F0.21859375
aF0.5171875
aI914
aa(lp2846
F0.21531250000000005
aF0.45625000000000004
aI921
aa(lp2847
F0.20609375
aF0.5484375
aI923
aa(lp2848
F0.24515625
aF0.5953125
aI913
aa(lp2849
F0.21703125000000004
aF0.6109375
aI924
aa(lp2850
F0.22953125
aF0.5796875
aI914
aa(lp2851
F0.26359374999999996
aF0.56875
aI924
aa(lp2852
F0.23453125000000002
aF0.5921875
aI934
aa(lp2853
F0.20546875
aF0.5234375
aI918
aa(lp2854
F0.23078125000000002
aF0.6140625
aI928
aa(lp2855
F0.20578124999999997
aF0.6609375
aI929
aa(lp2856
F0.220625
aF0.559375
aI908
aa(lp2857
F0.23750000000000002
aF0.609375
aI935
aa(lp2858
F0.24875
aF0.621875
aI916
aa(lp2859
F0.271875
aF0.625
aI924
aa(lp2860
F0.286875
aF0.56875
aI924
aa(lp2861
F0.2284375
aF0.575
aI923
aa(lp2862
F0.25796875
aF0.5921875
aI926
aa(lp2863
F0.28953125
aF0.6203125
aI914
aa(lp2864
F0.24859375
aF0.6703125
aI917
aa(lp2865
F0.2684375
aF0.596875
aI916
aa(lp2866
F0.28046875
aF0.6796875
aI923
aa(lp2867
F0.24874999999999997
aF0.6375
aI929
aa(lp2868
F0.27234375
aF0.6359375
aI917
aa(lp2869
F0.27687500000000004
aF0.7
aI924
aa(lp2870
F0.27421875
aF0.6328125
aI921
aa(lp2871
F0.275625
aF0.68125
aI920
aa(lp2872
F0.28203124999999996
aF0.6953125
aI914
aa(lp2873
F0.26453125
aF0.6515625
aI919
aa(lp2874
F0.23718750000000002
aF0.596875
aI924
aa(lp2875
F0.255
aF0.621875
aI920
aa(lp2876
F0.24640625
aF0.5828125
aI918
aa(lp2877
F0.25875
aF0.615625
aI924
aa(lp2878
F0.2296875
aF0.53125
aI916
aa(lp2879
F0.20921875
aF0.565625
aI920
aa(lp2880
F0.28421875
aF0.6734375
aI923
aa(lp2881
F0.25015624999999997
aF0.6078125
aI925
aa(lp2882
F0.24515625
aF0.5796875
aI910
aa(lp2883
F0.24328124999999995
aF0.6453125
aI923
aatp2884
a((lp2885
(lp2886
F0.697109375
aF0.88046875
aI953
aa(lp2887
F0.590234375
aF0.778125
aI932
aa(lp2888
F0.59921875
aF0.8046875
aI926
aa(lp2889
F0.6328125
aF0.859375
aI926
aa(lp2890
F0.616796875
aF0.8109375
aI924
aa(lp2891
F0.646171875
aF0.83515625
aI924
aa(lp2892
F0.6493749999999999
aF0.80390625
aI917
aa(lp2893
F0.626953125
aF0.82421875
aI927
aa(lp2894
F0.628203125
aF0.8671875
aI918
aa(lp2895
F0.6184375000000001
aF0.8234375
aI929
aa(lp2896
F0.642890625
aF0.8375
aI920
aa(lp2897
F0.636015625
aF0.81328125
aI914
aa(lp2898
F0.659609375
aF0.82578125
aI923
aa(lp2899
F0.649453125
aF0.803125
aI916
aa(lp2900
F0.6715625000000001
aF0.83984375
aI917
aa(lp2901
F0.634375
aF0.82109375
aI917
aa(lp2902
F0.6353125000000001
aF0.81171875
aI921
aa(lp2903
F0.635390625
aF0.81875
aI919
aa(lp2904
F0.644453125
aF0.83671875
aI900
aa(lp2905
F0.647421875
aF0.83125
aI919
aa(lp2906
F0.6209375
aF0.821875
aI933
aa(lp2907
F0.63828125
aF0.85234375
aI925
aa(lp2908
F0.6446875
aF0.8421875
aI915
aa(lp2909
F0.6644531250000001
aF0.84765625
aI923
aa(lp2910
F0.659375
aF0.84453125
aI925
aa(lp2911
F0.631875
aF0.8140625
aI906
aa(lp2912
F0.6706249999999999
aF0.8484375
aI925
aa(lp2913
F0.6521875
aF0.8453125
aI914
aa(lp2914
F0.667421875
aF0.8359375
aI915
aa(lp2915
F0.69
aF0.8671875
aI915
aa(lp2916
F0.6921875
aF0.8609375
aI912
aa(lp2917
F0.6538281249999999
aF0.8453125
aI914
aa(lp2918
F0.6503125
aF0.8265625
aI922
aa(lp2919
F0.642578125
aF0.825
aI923
aa(lp2920
F0.6799999999999999
aF0.8484375
aI920
aa(lp2921
F0.6696875
aF0.87421875
aI903
aa(lp2922
F0.663828125
aF0.85390625
aI910
aa(lp2923
F0.6589843750000001
aF0.84765625
aI918
aa(lp2924
F0.6819531249999999
aF0.89140625
aI893
aa(lp2925
F0.6815625
aF0.8796875
aI903
aa(lp2926
F0.622578125
aF0.86015625
aI918
aa(lp2927
F0.6648437500000001
aF0.859375
aI915
aa(lp2928
F0.65828125
aF0.87109375
aI914
aa(lp2929
F0.6614843749999999
aF0.87734375
aI922
aa(lp2930
F0.651484375
aF0.87578125
aI916
aa(lp2931
F0.6478906249999999
aF0.7953125
aI917
aa(lp2932
F0.6444531249999998
aF0.84453125
aI933
aa(lp2933
F0.6425000000000001
aF0.84140625
aI925
aa(lp2934
F0.63125
aF0.828125
aI922
aa(lp2935
F0.649609375
aF0.82421875
aI911
aa(lp2936
(lp2937
F0.20671875
aF0.7296875
aI953
aa(lp2938
F0.2
aF0.546875
aI932
aa(lp2939
F0.21125000000000002
aF0.575
aI926
aa(lp2940
F0.2253125
aF0.590625
aI926
aa(lp2941
F0.234375
aF0.625
aI924
aa(lp2942
F0.22171875000000002
aF0.5640625
aI924
aa(lp2943
F0.22453125
aF0.5515625
aI917
aa(lp2944
F0.21031249999999999
aF0.584375
aI927
aa(lp2945
F0.25265625
aF0.646875
aI918
aa(lp2946
F0.22125
aF0.584375
aI929
aa(lp2947
F0.26921875
aF0.6359375
aI920
aa(lp2948
F0.27484375
aF0.6109375
aI914
aa(lp2949
F0.255625
aF0.6
aI923
aa(lp2950
F0.2621875
aF0.55
aI916
aa(lp2951
F0.29921875000000003
aF0.6328125
aI917
aa(lp2952
F0.2659375
aF0.60625
aI917
aa(lp2953
F0.246875
aF0.578125
aI921
aa(lp2954
F0.27203125
aF0.5765625
aI919
aa(lp2955
F0.275625
aF0.634375
aI900
aa(lp2956
F0.26875000000000004
aF0.625
aI919
aa(lp2957
F0.2415625
aF0.63125
aI933
aa(lp2958
F0.27640625
aF0.6265625
aI925
aa(lp2959
F0.2534375
aF0.60625
aI915
aa(lp2960
F0.3334375
aF0.65
aI923
aa(lp2961
F0.30640625
aF0.6234375
aI925
aa(lp2962
F0.2740625
aF0.603125
aI906
aa(lp2963
F0.25484375
aF0.609375
aI925
aa(lp2964
F0.28171875
aF0.6359375
aI914
aa(lp2965
F0.31234375
aF0.6421875
aI915
aa(lp2966
F0.30640625
aF0.6703125
aI915
aa(lp2967
F0.3676562500000001
aF0.6828125
aI912
aa(lp2968
F0.31703125000000004
aF0.6578125
aI914
aa(lp2969
F0.24625
aF0.5859375
aI922
aa(lp2970
F0.2659375
aF0.590625
aI923
aa(lp2971
F0.26625
aF0.5875
aI920
aa(lp2972
F0.31203125
aF0.709375
aI903
aa(lp2973
F0.28609375
aF0.6703125
aI910
aa(lp2974
F0.26718749999999997
aF0.640625
aI918
aa(lp2975
F0.29140625
aF0.6953125
aI893
aa(lp2976
F0.28140624999999997
aF0.6546875
aI903
aa(lp2977
F0.26953125
aF0.6328125
aI918
aa(lp2978
F0.296875
aF0.65625
aI915
aa(lp2979
F0.26984375
aF0.7234375
aI914
aa(lp2980
F0.27453124999999995
aF0.6921875
aI922
aa(lp2981
F0.28921874999999997
aF0.7015625
aI916
aa(lp2982
F0.26171875
aF0.5703125
aI917
aa(lp2983
F0.27859375
aF0.6359375
aI933
aa(lp2984
F0.25015624999999997
aF0.5921875
aI925
aa(lp2985
F0.19953125
aF0.5671875
aI922
aa(lp2986
F0.26468749999999996
aF0.571875
aI911
aatp2987
a((lp2988
(lp2989
F0.660625
aF0.8703125
aI942
aa(lp2990
F0.604609375
aF0.82109375
aI914
aa(lp2991
F0.6124999999999999
aF0.8203125
aI917
aa(lp2992
F0.636015625
aF0.81953125
aI916
aa(lp2993
F0.671015625
aF0.83671875
aI923
aa(lp2994
F0.628515625
aF0.80859375
aI920
aa(lp2995
F0.6253124999999999
aF0.86484375
aI919
aa(lp2996
F0.6237499999999999
aF0.8171875
aI928
aa(lp2997
F0.627265625
aF0.82109375
aI926
aa(lp2998
F0.6246875
aF0.8109375
aI933
aa(lp2999
F0.63625
aF0.81796875
aI922
aa(lp3000
F0.614453125
aF0.79453125
aI927
aa(lp3001
F0.6622656250000001
aF0.8171875
aI923
aa(lp3002
F0.632265625
aF0.84140625
aI928
aa(lp3003
F0.6715625000000001
aF0.86328125
aI920
aa(lp3004
F0.6655468749999999
aF0.86875
aI914
aa(lp3005
F0.659140625
aF0.8390625
aI924
aa(lp3006
F0.68546875
aF0.8578125
aI916
aa(lp3007
F0.6663281249999999
aF0.8453125
aI909
aa(lp3008
F0.652734375
aF0.86328125
aI920
aa(lp3009
F0.67578125
aF0.88359375
aI917
aa(lp3010
F0.6488281250000001
aF0.87109375
aI906
aa(lp3011
F0.6706249999999999
aF0.8875
aI906
aa(lp3012
F0.662734375
aF0.87265625
aI908
aa(lp3013
F0.6562500000000001
aF0.85234375
aI927
aa(lp3014
F0.6673437499999999
aF0.85859375
aI913
aa(lp3015
F0.6757031250000001
aF0.86171875
aI920
aa(lp3016
F0.648984375
aF0.8625
aI918
aa(lp3017
F0.6375781250000001
aF0.84375
aI927
aa(lp3018
F0.6625781249999999
aF0.828125
aI923
aa(lp3019
F0.655703125
aF0.8734375
aI921
aa(lp3020
F0.6189062500000001
aF0.834375
aI931
aa(lp3021
F0.6397656249999999
aF0.80546875
aI922
aa(lp3022
F0.63890625
aF0.8140625
aI934
aa(lp3023
F0.63578125
aF0.79921875
aI934
aa(lp3024
F0.64390625
aF0.803125
aI943
aa(lp3025
F0.6197656250000001
aF0.81015625
aI921
aa(lp3026
F0.6354687499999999
aF0.82578125
aI924
aa(lp3027
F0.63453125
aF0.8109375
aI910
aa(lp3028
F0.613359375
aF0.79609375
aI919
aa(lp3029
F0.6380468749999999
aF0.84609375
aI932
aa(lp3030
F0.64453125
aF0.84453125
aI923
aa(lp3031
F0.63125
aF0.8203125
aI927
aa(lp3032
F0.650234375
aF0.83359375
aI917
aa(lp3033
F0.643671875
aF0.8453125
aI934
aa(lp3034
F0.6406250000000001
aF0.828125
aI931
aa(lp3035
F0.64609375
aF0.8359375
aI924
aa(lp3036
F0.667578125
aF0.8484375
aI922
aa(lp3037
F0.6537499999999999
aF0.8765625
aI907
aa(lp3038
F0.6500781250000001
aF0.8671875
aI930
aa(lp3039
(lp3040
F0.205625
aF0.6625
aI942
aa(lp3041
F0.20859375
aF0.6015625
aI914
aa(lp3042
F0.25875
aF0.63125
aI917
aa(lp3043
F0.25093750000000004
aF0.6
aI916
aa(lp3044
F0.2603125
aF0.56875
aI923
aa(lp3045
F0.26453125
aF0.5734375
aI920
aa(lp3046
F0.24453124999999998
aF0.6328125
aI919
aa(lp3047
F0.2271875
aF0.540625
aI928
aa(lp3048
F0.19874999999999998
aF0.528125
aI926
aa(lp3049
F0.2003125
aF0.528125
aI933
aa(lp3050
F0.22609374999999998
aF0.6
aI922
aa(lp3051
F0.23578125
aF0.5953125
aI927
aa(lp3052
F0.2609375
aF0.59375
aI923
aa(lp3053
F0.29937499999999995
aF0.63125
aI928
aa(lp3054
F0.346875
aF0.65625
aI920
aa(lp3055
F0.30328125
aF0.6703125
aI914
aa(lp3056
F0.2790625
aF0.615625
aI924
aa(lp3057
F0.28609375
aF0.6234375
aI916
aa(lp3058
F0.25359375
aF0.6828125
aI909
aa(lp3059
F0.27546875000000004
aF0.6828125
aI920
aa(lp3060
F0.34328125
aF0.7390625
aI917
aa(lp3061
F0.326875
aF0.7
aI906
aa(lp3062
F0.279375
aF0.70625
aI906
aa(lp3063
F0.278125
aF0.71875
aI908
aa(lp3064
F0.2753125
aF0.66875
aI927
aa(lp3065
F0.28312499999999996
aF0.621875
aI913
aa(lp3066
F0.29171875
aF0.6625
aI920
aa(lp3067
F0.27937500000000004
aF0.675
aI918
aa(lp3068
F0.27937500000000004
aF0.628125
aI927
aa(lp3069
F0.28718750000000004
aF0.58125
aI923
aa(lp3070
F0.25484375
aF0.6703125
aI921
aa(lp3071
F0.24203125
aF0.5796875
aI931
aa(lp3072
F0.2140625
aF0.5
aI922
aa(lp3073
F0.2303125
aF0.571875
aI934
aa(lp3074
F0.223125
aF0.503125
aI934
aa(lp3075
F0.21875
aF0.484375
aI943
aa(lp3076
F0.21953125
aF0.5546875
aI921
aa(lp3077
F0.21296875
aF0.5578125
aI924
aa(lp3078
F0.24984375000000003
aF0.5953125
aI910
aa(lp3079
F0.23343750000000002
aF0.5875
aI919
aa(lp3080
F0.23640625
aF0.6203125
aI932
aa(lp3081
F0.24796875
aF0.6140625
aI923
aa(lp3082
F0.25421875
aF0.5984375
aI927
aa(lp3083
F0.24359375000000003
aF0.5484375
aI917
aa(lp3084
F0.22640625000000003
aF0.6265625
aI934
aa(lp3085
F0.258125
aF0.590625
aI931
aa(lp3086
F0.24093749999999997
aF0.60625
aI924
aa(lp3087
F0.25015625
aF0.6546875
aI922
aa(lp3088
F0.27546875
aF0.6984375
aI907
aa(lp3089
F0.26515625
aF0.6625
aI930
aatp3090
a.